ccollections
defaultdict
p0
(c__builtin__
int
p1
tp2
Rp3
S'bathing-place'
p4
I1
sS'four'
p5
I29
sS'Does'
p6
I5
sS'hanging'
p7
I1
sS'woody'
p8
I2
sS'looking'
p9
I29
sS'eligible'
p10
I7
sS'scold'
p11
I1
sS'lord'
p12
I2
sS'meadows'
p13
I1
sS'sinking'
p14
I3
sS'foul'
p15
I1
sS'bringing'
p16
I12
sS'disturb'
p17
I1
sS'recollections'
p18
I8
sS'protest'
p19
I1
sS'piling'
p20
I1
sS'persisted'
p21
I2
sS'woods'
p22
I6
sS'succession'
p23
I1
sS's/he'
p24
I1
sS'tired'
p25
I4
sS'cordially'
p26
I3
sS'diffuseness'
p27
I1
sS'tires'
p28
I1
sS'elegant'
p29
I14
sS'second'
p30
I26
sS'consenting'
p31
I1
sS'errors'
p32
I4
sS'forgetting'
p33
I2
sS'cooking'
p34
I1
sS'contributed'
p35
I1
sS'fingers'
p36
I3
sS'designing'
p37
I1
sS'increasing'
p38
I11
sS'inducement'
p39
I5
sS'_our_'
p40
I1
sS'offenses'
p41
I3
sS'gayer'
p42
I1
sS'interrupting'
p43
I2
sS'work-bags'
p44
I1
sS'here'
p45
I57
sS'reported'
p46
I1
sS'china'
p47
I1
sS'hers'
p48
I7
sS'natured'
p49
I1
sS'substance'
p50
I3
sS'unwillingness'
p51
I3
sS'pretensions'
p52
I5
sS'reports'
p53
I2
sS'powdering'
p54
I1
sS'NOT'
p55
I2
sS'military'
p56
I1
sS'_would_'
p57
I3
sS'Compared'
p58
I1
sS'divide'
p59
I3
sS'secluded'
p60
I1
sS'criticise'
p61
I1
sS'explained'
p62
I9
sS'civilities'
p63
I7
sS'summons'
p64
I3
sS'brought'
p65
I37
sS'HARRIET'
p66
I1
sS'forbore'
p67
I1
sS'cheating'
p68
I1
sS'spoke'
p69
I42
sS'impartiality'
p70
I1
sS'music'
p71
I11
sS'therefore'
p72
I75
sS'strike'
p73
I5
sS'//gutenberg.org/license'
p74
I1
sS'sermons'
p75
I2
sS'until'
p76
I3
sS'Brighton'
p77
I24
sS'females'
p78
I2
sS'successful'
p79
I3
sS'brings'
p80
I1
sS'hurt'
p81
I6
sS'glass'
p82
I1
sS'90'
p83
I2
sS'hold'
p84
I8
sS'circumstances'
p85
I28
sS'pursue'
p86
I6
sS'accomplishment'
p87
I3
sS'EDW'
p88
I1
sS'example'
p89
I5
sS'expressively'
p90
I2
sS'misfortunes'
p91
I4
sS'NOTICE'
p92
I1
sS'La'
p93
I3
sS'unjust'
p94
I4
sS'household'
p95
I1
sS'bitterest'
p96
I1
sS'organized'
p97
I1
sS'caution'
p98
I3
sS'want'
p99
I44
sS'absolute'
p100
I4
sS'STRICT'
p101
I1
sS'complaining'
p102
I1
sS'feature'
p103
I2
sS'machine'
p104
I1
sS'how'
p105
I169
sS'hot'
p106
I2
sS'disgrace'
p107
I11
sS'shrug'
p108
I1
sS'dignified'
p109
I3
sS'A'
p110
I49
sS'gaming'
p111
I1
sS'beauty'
p112
I27
sS'wrong'
p113
I15
sS"Bingley's"
p114
I3
sS'destined'
p115
I3
sS'Matlock'
p116
I2
sS'types'
p117
I1
sS'_hauteur_'
p118
I2
sS'endeavoured'
p119
I10
sS'youths'
p120
I1
sS'revolt'
p121
I1
sS'headquarters'
p122
I1
sS'wink'
p123
I2
sS'18th'
p124
I1
sS'Another'
p125
I3
sS'keeps'
p126
I3
sS'nonsensical'
p127
I3
sS'Kenilworth'
p128
I1
sS'wind'
p129
I1
sS'wine'
p130
I3
sS'blind'
p131
I6
sS'welcomed'
p132
I7
sS'concurrence'
p133
I2
sS'vary'
p134
I3
sS'rewarded'
p135
I3
sS'His'
p136
I79
sS'fit'
p137
I4
sS'heretofore'
p138
I1
sS'fix'
p139
I4
sS'narrowest'
p140
I1
sS'distinguishing'
p141
I2
sS'_never_'
p142
I2
sS'nobler'
p143
I1
sS'admirable'
p144
I3
sS'grievous'
p145
I3
sS'copying'
p146
I4
sS'effects'
p147
I3
sS'interrupt'
p148
I5
sS'over-rated'
p149
I1
sS'beaux'
p150
I1
sS'yourself'
p151
I50
sS'_with_'
p152
I1
sS'interfering'
p153
I1
sS'blushed'
p154
I7
sS'preceded'
p155
I1
sS'financial'
p156
I1
sS'Eliza'
p157
I22
sS'fortnight'
p158
I23
sS'ill-used'
p159
I1
sS'blinded'
p160
I2
sS'backgammon'
p161
I2
sS'borne'
p162
I5
sS'misfortune'
p163
I9
sS'forwarding'
p164
I1
sS'excepting'
p165
I3
sS'encourage'
p166
I6
sS'Vanity'
p167
I1
sS'foundation'
p168
I4
sS'assured'
p169
I28
sS'wavered'
p170
I1
sS'threatened'
p171
I1
sS'_her_'
p172
I20
sS'faculties'
p173
I1
sS'grapes'
p174
I1
sS'sheet'
p175
I3
sS'universally'
p176
I3
sS'ate'
p177
I3
sS'exposing'
p178
I5
sS'ANYTHING'
p179
I1
sS'shelves'
p180
I1
sS'disturbed'
p181
I2
sS'speedy'
p182
I2
sS'Human'
p183
I1
sS'angelic'
p184
I1
sS'Please'
p185
I1
sS'instruct'
p186
I1
sS'clamorous'
p187
I1
sS'FITNESS'
p188
I1
sS'sallied'
p189
I1
sS'service'
p190
I7
sS'engagement'
p191
I20
sS'needed'
p192
I3
sS'master'
p193
I28
sS'bitter'
p194
I2
sS'listen'
p195
I12
sS'_knew_'
p196
I1
sS'wisdom'
p197
I1
sS'legally'
p198
I2
sS'positively'
p199
I2
sS'exultation'
p200
I1
sS'showed'
p201
I7
sS'miniatures'
p202
I3
sS'project'
p203
I1
sS'idle'
p204
I8
sS'exclaimed'
p205
I8
sS'endure'
p206
I1
sS'feeling'
p207
I38
sS'acquisition'
p208
I1
sS'entail'
p209
I8
sS'willingness'
p210
I3
sS'dozen'
p211
I1
sS'Then'
p212
I13
sS'regretting'
p213
I2
sS'eagerly'
p214
I14
sS'recommended'
p215
I9
sS'amusing'
p216
I4
sS'They'
p217
I124
sS'Stoke'
p218
I1
sS'sweet-tempered'
p219
I1
sS'imprudent'
p220
I10
sS'Jones'
p221
I5
sS'transactions'
p222
I2
sS'object'
p223
I48
sS'vexing'
p224
I1
sS'obsequiousness'
p225
I1
sS'mouth'
p226
I1
sS'letter'
p227
I116
sS'retaining'
p228
I1
sS'morality'
p229
I1
sS'grove'
p230
I3
sS'camp'
p231
I3
sS'fugitives'
p232
I1
sS'_Too'
p233
I1
sS'came'
p234
I90
sS'saying'
p235
I35
sS'sons-in-law'
p236
I1
sS'meetings'
p237
I2
sS'tempted'
p238
I7
sS'four-and-twenty'
p239
I1
sS'apace'
p240
I1
sS'busy'
p241
I1
sS'vexations'
p242
I1
sS'cousins'
p243
I11
sS'touched'
p244
I4
sS'rich'
p245
I12
sS'upbraiding'
p246
I1
sS'heartily'
p247
I10
sS'emphatically'
p248
I1
sS'plate'
p249
I1
sS'petrified'
p250
I1
sS'pocket'
p251
I2
sS'altogether'
p252
I8
sS'societies'
p253
I1
sS'nicely'
p254
I1
sS'SEND'
p255
I1
sS'exclamations'
p256
I3
sS'release'
p257
I1
sS'hasten'
p258
I1
sS'precluding'
p259
I1
sS'fair'
p260
I22
sS'_You_'
p261
I11
sS'unexpectedly'
p262
I3
sS'result'
p263
I5
sS'fail'
p264
I6
sS'Netherfield'
p265
I73
sS'well-educated'
p266
I1
sS'best'
p267
I41
sS'foxhounds'
p268
I1
sS'playfulness'
p269
I2
sS'rings'
p270
I1
sS'solicitude'
p271
I8
sS'opened'
p272
I16
sS'score'
p273
I4
sS'scorn'
p274
I1
sS'preserve'
p275
I5
sS'never'
p276
I212
sS'nature'
p277
I23
sS'toilette'
p278
I2
sS'great-uncle'
p279
I1
sS'_felt_'
p280
I1
sS'extent'
p281
I8
sS'defiance'
p282
I3
sS'debt'
p283
I4
sS'pity'
p284
I9
sS'accident'
p285
I5
sS'disdain'
p286
I6
sS'country'
p287
I42
sS'estates'
p288
I4
sS'planned'
p289
I3
sS'marrying'
p290
I23
sS'adapted'
p291
I3
sS'asked'
p292
I40
sS'\xef\xbb\xbfThe'
p293
I1
sS'temptations'
p294
I2
sS'mortified'
p295
I5
sS'vain'
p296
I18
sS'unprotected'
p297
I1
sS'mortifies'
p298
I1
sS'union'
p299
I4
sS'Amongst'
p300
I1
sS'.'
p301
I5159
sS'much'
p302
I323
sS'west'
p303
I1
sS'wished-for'
p304
I2
sS'privilege'
p305
I3
sS'tallest'
p306
I1
sS'life'
p307
I57
sS'lift'
p308
I4
sS'doubts'
p309
I2
sS'worked'
p310
I4
sS'diverted'
p311
I3
sS'employ'
p312
I2
sS'unfelt'
p313
I2
sS'remembering'
p314
I2
sS'congratulation'
p315
I1
sS'played'
p316
I1
sS'actuated'
p317
I1
sS"'My"
p318
I1
sS'to-morrow'
p319
I14
sS'anticipating'
p320
I2
sS"'Mr"
p321
I1
sS'trusted'
p322
I7
sS'damaged'
p323
I1
sS'severity'
p324
I1
sS'things'
p325
I29
sS'Oh'
p326
I92
sS'chambermaid'
p327
I2
sS'harmony'
p328
I1
sS'parsonage-house'
p329
I1
sS'emphatic'
p330
I1
sS'eBooks'
p331
I7
sS'exertion'
p332
I9
sS'fairly'
p333
I2
sS'ill-usage'
p334
I2
sS'qualifications'
p335
I1
sS'supper'
p336
I11
sS'altar'
p337
I1
sS'intrusion'
p338
I3
sS'ill-judging'
p339
I1
sS'milliner'
p340
I2
sS'opinions'
p341
I8
sS'outlived'
p342
I1
sS'Thank'
p343
I6
sS'absurdities'
p344
I2
sS'THAT'
p345
I2
sS'distribute'
p346
I6
sS'disguise'
p347
I4
sS'ungovernable'
p348
I1
sS'exclaiming'
p349
I4
sS'succeeding'
p350
I4
sS'previous'
p351
I4
sS'terrific'
p352
I1
sS'ham'
p353
I1
sS'ease'
p354
I17
sS'had'
p355
I1147
sS'advancement'
p356
I1
sS'Surely'
p357
I1
sS'innocent'
p358
I2
sS'ante-chamber'
p359
I1
sS'has'
p360
I217
sS'hat'
p361
I2
sS'good-humoured'
p362
I6
sS'elevation'
p363
I1
sS're-considering'
p364
I1
sS'disagreement'
p365
I1
sS'possible'
p366
I56
sS'Three'
p367
I1
sS'possibly'
p368
I8
sS'birth'
p369
I5
sS'replace'
p370
I1
sS'occurring'
p371
I2
sS'desire'
p372
I23
sS'remind'
p373
I2
sS'pavement'
p374
I1
sS'steps'
p375
I5
sS'OF'
p376
I10
sS'effusion'
p377
I2
sS'attorney'
p378
I3
sS'right'
p379
I40
sS'old'
p380
I15
sS'crowd'
p381
I1
sS'people'
p382
I50
sS'predominance'
p383
I1
sS'crown'
p384
I1
sS'glove'
p385
I1
sS'Between'
p386
I3
sS'sea-bathing'
p387
I1
sS'enemies'
p388
I1
sS'for'
p389
I1060
sS'bottom'
p390
I1
sS'unavoidably'
p391
I1
sS'creative'
p392
I1
sS'witty'
p393
I1
sS'disheartened'
p394
I1
sS'summoned'
p395
I5
sS'Lambton'
p396
I10
sS'palatable'
p397
I1
sS'shifting'
p398
I1
sS'losing'
p399
I1
sS'bowing'
p400
I1
sS'Think'
p401
I1
sS'shaken'
p402
I3
sS'First'
p403
I2
sS'benches'
p404
I1
sS'grievously'
p405
I1
sS'recollect'
p406
I6
sS'despair'
p407
I1
sS'slightly'
p408
I4
sS'ill-founded'
p409
I1
sS'raised'
p410
I6
sS'statements'
p411
I1
sS'facility'
p412
I1
sS'Scotland'
p413
I8
sS'son'
p414
I18
sS'respectable'
p415
I13
sS'federal'
p416
I2
sS'despised'
p417
I3
sS'support'
p418
I11
sS'constantly'
p419
I3
sS'avail'
p420
I1
sS'despises'
p421
I1
sS'authorized'
p422
I1
sS'greatness'
p423
I2
sS'acquainting'
p424
I1
sS'happy'
p425
I81
sS'offer'
p426
I28
sS'forming'
p427
I4
sS'talents'
p428
I5
sS'self-command'
p429
I1
sS'congratulations'
p430
I12
sS'humbled'
p431
I4
sS'WILLIAM'
p432
I1
sS'nicest'
p433
I1
sS'Sir'
p434
I49
sS'proud'
p435
I21
sS'liberal'
p436
I4
sS"''"
p437
I1916
sS'exist'
p438
I1
sS'NIECE'
p439
I1
sS'accounting'
p440
I3
sS'effusions'
p441
I2
sS'Wretched'
p442
I1
sS'protested'
p443
I8
sS'solicitation'
p444
I2
sS'uttered'
p445
I5
sS'benefiting'
p446
I1
sS"'s"
p447
I583
sS'scale'
p448
I1
sS"'m"
p449
I1
sS"'T"
p450
I3
sS'fastened'
p451
I1
sS'Charles'
p452
I7
sS'good-natured'
p453
I5
sS'time'
p454
I200
sS"'I"
p455
I1
sS'gown'
p456
I7
sS'corps'
p457
I6
sS'chair'
p458
I6
sS'quartered'
p459
I3
sS'indolent'
p460
I1
sS'vex'
p461
I1
sS'reverting'
p462
I1
sS'irksome'
p463
I2
sS'downloading'
p464
I1
sS'choice'
p465
I15
sS'gloomy'
p466
I2
sS'rapturous'
p467
I2
sS'fatigued'
p468
I3
sS'stays'
p469
I1
sS'fullest'
p470
I1
sS'exact'
p471
I3
sS'minute'
p472
I9
sS'cooks'
p473
I1
sS'tear'
p474
I2
sS'leave'
p475
I61
sS'engrossing'
p476
I1
sS'speculation'
p477
I1
sS'unaware'
p478
I1
sS'prevent'
p479
I17
sS'insignificant'
p480
I1
sS'sigh'
p481
I2
sS'sign'
p482
I2
sS"Lydia's"
p483
I3
sS'celebrated'
p484
I2
sS'current'
p485
I1
sS'falling'
p486
I3
sS'profligate'
p487
I1
sS'True'
p488
I4
sS'honour'
p489
I42
sS'understanding'
p490
I21
sS'yards'
p491
I1
sS'address'
p492
I20
sS'alone'
p493
I31
sS'along'
p494
I9
sS'My'
p495
I109
sS'studied'
p496
I2
sS'wherever'
p497
I7
sS'commonly'
p498
I1
sS'accomplished'
p499
I12
sS'MY'
p500
I7
sS'studier'
p501
I1
sS'concealed'
p502
I7
sS'love'
p503
I91
sS'READ'
p504
I1
sS'prefer'
p505
I6
sS"relations'"
p506
I1
sS'Vanilla'
p507
I2
sS'crammed'
p508
I1
sS'August'
p509
I2
sS'Rendered'
p510
I1
sS'positive'
p511
I3
sS'angry'
p512
I17
sS'sisterly'
p513
I3
sS'vigour'
p514
I1
sS'explicitly'
p515
I1
sS'opposed'
p516
I5
sS'wondering'
p517
I2
sS'scope'
p518
I1
sS'Those'
p519
I5
sS'loving'
p520
I2
sS'introducing'
p521
I4
sS'``'
p522
I1637
sS'consoled'
p523
I1
sS'afford'
p524
I7
sS'apparent'
p525
I3
sS'refrain'
p526
I3
sS'odious'
p527
I3
sS'everywhere'
p528
I2
sS'virtue'
p529
I10
sS'behalf'
p530
I4
sS'valued'
p531
I5
sS'anything'
p532
I80
sS'Pope'
p533
I1
sS'originally'
p534
I2
sS'pretend'
p535
I7
sS'believes'
p536
I1
sS'believed'
p537
I37
sS'Our'
p538
I7
sS'detached'
p539
I3
sS'admired'
p540
I12
sS're-establish'
p541
I1
sS'admires'
p542
I2
sS'allowed'
p543
I26
sS'offense'
p544
I3
sS'stole'
p545
I1
sS'evidently'
p546
I5
sS'winter'
p547
I15
sS'divided'
p548
I4
sS'Who'
p549
I9
sS'thanking'
p550
I4
sS'northwards'
p551
I1
sS'Why'
p552
I22
sS'spot'
p553
I7
sS'date'
p554
I4
sS'such'
p555
I375
sS'revealed'
p556
I2
sS'disagreeable'
p557
I14
sS'stress'
p558
I1
sS'natural'
p559
I22
sS'varieties'
p560
I1
sS'conscious'
p561
I3
sS'consequently'
p562
I10
sS'yielding'
p563
I3
sS'self-reproach'
p564
I2
sS'so'
p565
I576
sS'Honourable'
p566
I1
sS'subsisting'
p567
I2
sS'disagreeably'
p568
I1
sS'unsolicited'
p569
I1
sS"'Oh"
p570
I1
sS'Barnet'
p571
I2
sS'years'
p572
I36
sS'course'
p573
I47
sS'tendency'
p574
I3
sS'thoughtfulness'
p575
I2
sS'solitary'
p576
I4
sS'derive'
p577
I3
sS'yawning'
p578
I1
sS'solace'
p579
I1
sS'stupidity'
p580
I4
sS'attraction'
p581
I3
sS'suspicion'
p582
I9
sS'into'
p583
I141
sS'petition'
p584
I1
sS'instantly'
p585
I31
sS'conveying'
p586
I1
sS'Dovedale'
p587
I1
sS'equipage'
p588
I1
sS'thereby'
p589
I2
sS'executors'
p590
I1
sS'picture-gallery'
p591
I1
sS'bashful'
p592
I1
sS'overpowering'
p593
I1
sS'Harringtons'
p594
I1
sS'arriving'
p595
I1
sS'maintaining'
p596
I2
sS'_you_'
p597
I20
sS'instability'
p598
I1
sS'quarter'
p599
I9
sS'cordiality'
p600
I4
sS'receipt'
p601
I4
sS'owing'
p602
I4
sS'irremediable'
p603
I1
sS'entering'
p604
I9
sS'paling'
p605
I1
sS'neighbourhood'
p606
I29
sS'canvas'
p607
I1
sS'Elizabeth'
p608
I632
sS'abide'
p609
I2
sS'contained'
p610
I7
sS'investigation'
p611
I1
sS'shop-boy'
p612
I1
sS'suggesting'
p613
I1
sS'bordering'
p614
I3
sS'GUTENBERG-tm'
p615
I1
sS'complimented'
p616
I3
sS'fellow-creatures'
p617
I2
sS'possibility'
p618
I13
sS'quite'
p619
I96
sS'disrespect'
p620
I2
sS'besides'
p621
I10
sS'remainder'
p622
I1
sS'liberally'
p623
I2
sS'patronage'
p624
I4
sS'Money'
p625
I1
sS'modest'
p626
I2
sS'misused'
p627
I1
sS'neglect'
p628
I10
sS'jumbled'
p629
I1
sS'emotion'
p630
I5
sS'saving'
p631
I3
sS'symmetry'
p632
I1
sS'spoken'
p633
I16
sS'one'
p634
I254
sS'conscientiously'
p635
I1
sS'open'
p636
I17
sS'affords'
p637
I1
sS'city'
p638
I1
sS'postilions'
p639
I1
sS'Monday'
p640
I9
sS'occupy'
p641
I2
sS'indicate'
p642
I1
sS'2'
p643
I3
sS'brevity'
p644
I1
sS'violated'
p645
I1
sS'lingering'
p646
I1
sS'much_'
p647
I1
sS'pressingly'
p648
I1
sS'proving'
p649
I1
sS'ridiculous'
p650
I4
sS'1.E.9'
p651
I3
sS'1.E.8'
p652
I4
sS'1.E.5'
p653
I1
sS'1.E.4'
p654
I1
sS'1.E.7'
p655
I3
sS'1.E.6'
p656
I1
sS'representing'
p657
I2
sS'1.E.3'
p658
I1
sS'1.E.2'
p659
I1
sS'overtaken'
p660
I1
sS'depressed'
p661
I2
sS'rival'
p662
I1
sS'folly'
p663
I11
sS'coats'
p664
I1
sS'future'
p665
I18
sS'wandering'
p666
I3
sS'prospect'
p667
I14
sS'dutifully'
p668
I2
sS'addressing'
p669
I3
sS'illness'
p670
I2
sS'royalties'
p671
I2
sS'turned'
p672
I43
sS'argument'
p673
I5
sS'jewels'
p674
I1
sS'sad'
p675
I4
sS'say'
p676
I158
sS'rained'
p677
I1
sS'lurking'
p678
I1
sS'saw'
p679
I103
sS'preservative'
p680
I2
sS'sat'
p681
I38
sS'fashionable'
p682
I1
sS'unsuitable'
p683
I2
sS'aside'
p684
I4
sS'instructed'
p685
I1
sS'note'
p686
I8
sS'take'
p687
I77
sS'wanting'
p688
I7
sS'coincide'
p689
I1
sS'Observing'
p690
I1
sS'creditably'
p691
I1
sS'altered'
p692
I7
sS'opposite'
p693
I11
sS'syllable'
p694
I5
sS'discerning'
p695
I1
sS'knew'
p696
I57
sS'unkindness'
p697
I1
sS'airing'
p698
I1
sS'printed'
p699
I2
sS'remarks'
p700
I8
sS'pages'
p701
I2
sS'lawn'
p702
I5
sS'drive'
p703
I4
sS'unabated'
p704
I1
sS'trembled'
p705
I1
sS'laws'
p706
I8
sS'walking'
p707
I26
sS'murmurs'
p708
I1
sS'merit'
p709
I7
sS'peaches'
p710
I1
sS'bright'
p711
I1
sS'scarce'
p712
I1
sS'imagined'
p713
I5
sS'slow'
p714
I2
sS'reconciling'
p715
I1
sS'tears'
p716
I10
sS'Phillipses'
p717
I2
sS'uppermost'
p718
I1
sS'entreaties'
p719
I4
sS'wilfully'
p720
I2
sS'dispute'
p721
I2
sS'guarded'
p722
I9
sS'rejoiced'
p723
I9
sS'assistant'
p724
I1
sS'Having'
p725
I5
sS'man-servant'
p726
I1
sS'resource'
p727
I1
sS'borrow'
p728
I2
sS'landlord'
p729
I2
sS'liable'
p730
I2
sS'where'
p731
I87
sS'hastened'
p732
I4
sS'aroused'
p733
I1
sS'Church'
p734
I1
sS'That'
p735
I45
sS'alarming'
p736
I5
sS'illiberal'
p737
I1
sS'spars'
p738
I1
sS'screen'
p739
I2
sS'adept'
p740
I1
sS'spare'
p741
I7
sS'suppressed'
p742
I2
sS'conversed'
p743
I1
sS'residence'
p744
I4
sS'loudly'
p745
I2
sS'LIABLE'
p746
I1
sS'expression'
p747
I21
sS'allowance'
p748
I2
sS'loveliest'
p749
I1
sS'Fairbanks'
p750
I1
sS'hurts'
p751
I1
sS'gaiety'
p752
I2
sS'coppice-wood'
p753
I1
sS'sentinel'
p754
I1
sS'caring'
p755
I2
sS'plantation'
p756
I1
sS'practises'
p757
I2
sS'stretch'
p758
I2
sS'mounting'
p759
I1
sS'breath'
p760
I2
sS'variance.'
p761
I1
sS'motives'
p762
I7
sS'wants'
p763
I11
sS'enable'
p764
I1
sS'lanes'
p765
I1
sS'Whenever'
p766
I1
sS'thousand'
p767
I34
sS'formed'
p768
I16
sS'haunt'
p769
I1
sS'observe'
p770
I10
sS'chatty'
p771
I1
sS'former'
p772
I39
sS'pretence'
p773
I1
sS'consulted'
p774
I2
sS'intimately'
p775
I2
sS'confidently'
p776
I1
sS'newspaper'
p777
I1
sS'situation'
p778
I38
sS'endured'
p779
I4
sS'brow'
p780
I1
sS'engaged'
p781
I37
sS'fame'
p782
I1
sS'binary'
p783
I1
sS'Towards'
p784
I1
sS'nuptials'
p785
I3
sS'perpetually'
p786
I3
sS'inoffensive'
p787
I1
sS'edged'
p788
I2
sS'I'
p789
I2065
sS'defy'
p790
I4
sS'IRS'
p791
I1
sS'_is_'
p792
I3
sS'Pulvis'
p793
I1
sS'vacant'
p794
I5
sS'commonest'
p795
I1
sS'peculiarities'
p796
I1
sS'book-room'
p797
I1
sS'summer'
p798
I19
sS'manifold'
p799
I1
sS'dinner-time'
p800
I2
sS'being'
p801
I174
sS'rest'
p802
I40
sS'invalid'
p803
I1
sS'flutterings'
p804
I1
sS'presumption'
p805
I3
sS'sixteen'
p806
I7
sS'deceiving'
p807
I2
sS'hereabouts'
p808
I2
sS'instrument'
p809
I11
sS'Anonymous'
p810
I2
sS'overthrow'
p811
I1
sS'prominently'
p812
I2
sS'joyful'
p813
I2
sS'defection'
p814
I1
sS'around'
p815
I2
sS'dark'
p816
I2
sS'preference'
p817
I10
sS'world'
p818
I66
sS'Forster'
p819
I39
sS'apprehending'
p820
I1
sS'vague'
p821
I2
sS'dare'
p822
I40
sS'doubtingly'
p823
I1
sS'60'
p824
I2
sS'stranger'
p825
I13
sS'superiority'
p826
I1
sS'satisfactory'
p827
I7
sS'conditional'
p828
I1
sS'Seriously'
p829
I2
sS'moreover'
p830
I11
sS'thinks'
p831
I4
sS'dimensions'
p832
I1
sS'memories'
p833
I2
sS'noon'
p834
I2
sS'Imprudence'
p835
I1
sS'restoring'
p836
I1
sS'unsuccessfully'
p837
I1
sS'power'
p838
I42
sS'intimate'
p839
I12
sS'retains'
p840
I1
sS'forgetfulness'
p841
I1
sS'stone'
p842
I1
sS'joyfully'
p843
I1
sS'paperwork'
p844
I1
sS'act'
p845
I9
sS'luck'
p846
I4
sS'perturbed'
p847
I1
sS'fervently'
p848
I1
sS'burning'
p849
I1
sS'afforded'
p850
I5
sS'Away'
p851
I1
sS'sneering'
p852
I1
sS'lively'
p853
I15
sS'parties'
p854
I12
sS'another_'
p855
I1
sS'her'
p856
I2118
sS'endeavouring'
p857
I5
sS'complete'
p858
I8
sS"Wickham's"
p859
I2
sS'fastidious'
p860
I2
sS'survived'
p861
I1
sS'with'
p862
I1065
sS'Derbyshire'
p863
I24
sS'buying'
p864
I1
sS'handsome'
p865
I37
sS'abused'
p866
I2
sS'pull'
p867
I1
sS'rage'
p868
I2
sS'House'
p869
I8
sS'turnpike-road'
p870
I1
sS'flirt'
p871
I4
sS'impute'
p872
I1
sS'dirty'
p873
I4
sS'agree'
p874
I13
sS'detailed'
p875
I1
sS'gone'
p876
I62
sS'brotherly'
p877
I1
sS'exhausted'
p878
I1
sS'certain'
p879
I56
sS'accents'
p880
I2
sS'am'
p881
I316
sS'Thursday'
p882
I4
sS'an'
p883
I350
sS'How'
p884
I66
sS'as'
p885
I1133
sS'associating'
p886
I1
sS'at'
p887
I758
sS'walks'
p888
I4
sS'watched'
p889
I7
sS'tranquil'
p890
I2
sS'incautiously'
p891
I1
sS'tremble'
p892
I1
sS'self-conquest'
p893
I1
sS'Read'
p894
I1
sS'sanguine'
p895
I2
sS'Watson'
p896
I1
sS'2001'
p897
I1
sS'querulous'
p898
I1
sS'incomprehensible'
p899
I2
sS'Lady'
p900
I136
sS'disgraceful'
p901
I5
sS'indemnify'
p902
I1
sS'accosted'
p903
I2
sS'accounts'
p904
I3
sS'disdained'
p905
I3
sS'waived'
p906
I1
sS'tricks'
p907
I1
sS'Street'
p908
I9
sS'sensibility'
p909
I2
sS'original'
p910
I5
sS'consider'
p911
I31
sS'caused'
p912
I1
sS'importune'
p913
I1
sS'_such_'
p914
I3
sS'welfare'
p915
I5
sS'reasoning'
p916
I1
sS'causes'
p917
I5
sS'friendless'
p918
I1
sS'condescends'
p919
I1
sS'careful'
p920
I4
sS'hunting'
p921
I1
sS'Donations'
p922
I2
sS'superintended'
p923
I1
sS'to'
p924
I4162
sS'dressing'
p925
I4
sS'smile'
p926
I29
sS'premeditation'
p927
I1
sS'paying'
p928
I6
sS'Scarcely'
p929
I2
sS'appointment'
p930
I1
sS'returned'
p931
I45
sS'puzzled'
p932
I1
sS'linked'
p933
I1
sS'reader'
p934
I3
sS'candid'
p935
I1
sS'revolving'
p936
I1
sS'encroaching'
p937
I1
sS'condition'
p938
I3
sS'accompanying'
p939
I2
sS'ingratitude'
p940
I1
sS'EXPRESS'
p941
I1
sS'laying'
p942
I2
sS'joined'
p943
I28
sS'large'
p944
I23
sS'sang'
p945
I1
sS'desertion'
p946
I1
sS'small'
p947
I25
sS'_that'
p948
I1
sS'Must'
p949
I1
sS'ASCII'
p950
I2
sS'Darcy_'
p951
I1
sS'past'
p952
I9
sS'carriages'
p953
I6
sS'honourable'
p954
I5
sS'pass'
p955
I16
sS'destitute'
p956
I1
sS'situated'
p957
I4
sS'mayoralty'
p958
I1
sS'clock'
p959
I1
sS'pliancy'
p960
I1
sS'prevailed'
p961
I15
sS'undecided'
p962
I1
sS'method'
p963
I6
sS'contrast'
p964
I3
sS'revealing'
p965
I1
sS'full'
p966
I29
sS'escaping'
p967
I1
sS'indecision'
p968
I1
sS'hours'
p969
I26
sS'obtruded'
p970
I2
sS'scheming'
p971
I1
sS'concluding'
p972
I1
sS'outdone'
p973
I1
sS'compliance'
p974
I5
sS'experience'
p975
I2
sS'prior'
p976
I2
sS'periodic'
p977
I1
sS'social'
p978
I1
sS'cessation'
p979
I1
sS'sweetness'
p980
I5
sS"day's"
p981
I1
sS'followed'
p982
I25
sS'regiment'
p983
I22
sS'crowned'
p984
I1
sS'beheld'
p985
I2
sS'attendance'
p986
I4
sS'good-tempered'
p987
I1
sS'Peak'
p988
I1
sS'6'
p989
I2
sS'FRIEND'
p990
I1
sS'more'
p991
I322
sS'door'
p992
I32
sS'company'
p993
I22
sS'spoilt'
p994
I2
sS'entrance-hall'
p995
I1
sS'ill-qualified'
p996
I1
sS'rudeness'
p997
I2
sS'foundations'
p998
I1
sS'objections'
p999
I11
sS'cunning'
p1000
I1
sS'keeping'
p1001
I6
sS'pleasing'
p1002
I22
sS'science'
p1003
I1
sS"'After"
p1004
I1
sS'learn'
p1005
I11
sS'upbraided'
p1006
I1
sS'male'
p1007
I1
sS'Your'
p1008
I44
sS'beautiful'
p1009
I15
sS'water-plant'
p1010
I1
sS'prompt'
p1011
I1
sS'stated'
p1012
I2
sS'lives'
p1013
I4
sS'needlework'
p1014
I1
sS'dislikes'
p1015
I1
sS'accept'
p1016
I17
sS'_am_'
p1017
I1
sS'music-books'
p1018
I1
sS'disliked'
p1019
I4
sS'dress'
p1020
I5
sS'condemn'
p1021
I3
sS'information'
p1022
I30
sS'mince-pies'
p1023
I1
sS'dismissed'
p1024
I3
sS'glowing'
p1025
I1
sS'footman'
p1026
I1
sS'unattended'
p1027
I1
sS'creature'
p1028
I14
sS'plans'
p1029
I3
sS'disgraced'
p1030
I1
sS'ill-will'
p1031
I3
sS'OTHER'
p1032
I1
sS'pleaded'
p1033
I1
sS'flutter'
p1034
I3
sS'refuse'
p1035
I9
sS'irreligious'
p1036
I1
sS'fender'
p1037
I1
sS'replied'
p1038
I103
sS'adorned'
p1039
I3
sS'passages'
p1040
I2
sS'incessantly'
p1041
I2
sS'bowl'
p1042
I1
sS'rectory'
p1043
I1
sS'trade'
p1044
I4
sS'attitude'
p1045
I1
sS'paper'
p1046
I6
sS'pang'
p1047
I1
sS'signs'
p1048
I1
sS'smiling'
p1049
I10
sS'BINGLEY'
p1050
I1
sS'its'
p1051
I105
sS'saucy'
p1052
I1
sS'ill-judged'
p1053
I4
sS'rapidly'
p1054
I2
sS'termed'
p1055
I1
sS'attributing'
p1056
I1
sS'symptoms'
p1057
I2
sS'ruining'
p1058
I1
sS'travelling'
p1059
I6
sS'lies'
p1060
I1
sS'propose'
p1061
I3
sS'men-servants'
p1062
I1
sS'Michael'
p1063
I2
sS'consign'
p1064
I1
sS'barefaced'
p1065
I1
sS"coachman's"
p1066
I1
sS'likeness'
p1067
I3
sS'hereafter'
p1068
I3
sS'always'
p1069
I119
sS'assemblies'
p1070
I2
sS'eloquence'
p1071
I1
sS'courses'
p1072
I3
sS'parishioners'
p1073
I1
sS'shocking'
p1074
I6
sS'status'
p1075
I4
sS'begged'
p1076
I8
sS'resolute'
p1077
I1
sS'really'
p1078
I87
sS'inquired'
p1079
I8
sS'missed'
p1080
I3
sS'research'
p1081
I3
sS'denoted'
p1082
I2
sS'darling'
p1083
I1
sS'occurs'
p1084
I1
sS'attentions'
p1085
I26
sS'belief'
p1086
I15
sS'risen'
p1087
I1
sS'proxy'
p1088
I1
sS'imagine'
p1089
I26
sS'intermediate'
p1090
I1
sS'rises'
p1091
I1
sS'reproach'
p1092
I6
sS'definition'
p1093
I1
sS'retained'
p1094
I2
sS'was_'
p1095
I1
sS'devoid'
p1096
I1
sS'sensations'
p1097
I3
sS'expedient'
p1098
I2
sS'clump'
p1099
I1
sS'arose'
p1100
I5
sS"Bennet's"
p1101
I2
sS'purport'
p1102
I2
sS'number'
p1103
I8
sS'preservation'
p1104
I2
sS'guess'
p1105
I5
sS'heads'
p1106
I1
sS'guest'
p1107
I5
sS'Courier'
p1108
I1
sS'probity'
p1109
I1
sS'cradles'
p1110
I1
sS'syllables'
p1111
I1
sS'justly'
p1112
I3
sS'warmly'
p1113
I8
sS'relationship'
p1114
I12
sS'immediate'
p1115
I14
sS'satirical'
p1116
I1
sS'consult'
p1117
I3
sS'licensed'
p1118
I1
sS'stairs'
p1119
I18
sS'grace'
p1120
I1
sS'determined'
p1121
I32
sS'marriage'
p1122
I66
sS'beneficial'
p1123
I1
sS'beforehand'
p1124
I1
sS'defect'
p1125
I6
sS'recital'
p1126
I3
sS'sell'
p1127
I1
sS'extorted'
p1128
I1
sS'self'
p1129
I1
sS'reliance'
p1130
I3
sS'also'
p1131
I36
sS'recognizing'
p1132
I1
sS'seized'
p1133
I2
sS'play'
p1134
I18
sS'Tease'
p1135
I2
sS'relied'
p1136
I1
sS'M'
p1137
I1
sS'yawn'
p1138
I2
sS'virus'
p1139
I1
sS'plan'
p1140
I13
sS'accepting'
p1141
I5
sS'bosom'
p1142
I1
sS'singled'
p1143
I2
sS'unequal'
p1144
I4
sS'_filial_'
p1145
I1
sS'seize'
p1146
I1
sS'sometimes'
p1147
I32
sS'cover'
p1148
I1
sS'fashions'
p1149
I2
sS'If'
p1150
I104
sS'tete-a-tete'
p1151
I4
sS'despise'
p1152
I3
sS'extractions'
p1153
I1
sS'Had'
p1154
I25
sS'defended'
p1155
I1
sS'condole'
p1156
I2
sS'Has'
p1157
I6
sS'occupation'
p1158
I1
sS'sideboard'
p1159
I1
sS'detaining'
p1160
I2
sS'_food_'
p1161
I1
sS'writes'
p1162
I1
sS'writer'
p1163
I3
sS'failed'
p1164
I3
sS'unjustly'
p1165
I2
sS'indifference'
p1166
I17
sS'ordained'
p1167
I1
sS'blameable'
p1168
I1
sS'dependent'
p1169
I3
sS'resent'
p1170
I4
sS'farthing'
p1171
I1
sS'remedy'
p1172
I2
sS'preparing'
p1173
I6
sS'closely'
p1174
I1
sS'compass'
p1175
I1
sS'adhered'
p1176
I1
sS'cruelly'
p1177
I3
sS'enemy'
p1178
I1
sS'tumult'
p1179
I3
sS'hot-pressed'
p1180
I1
sS'proclaim'
p1181
I1
sS'lofty'
p1182
I1
sS'kill'
p1183
I1
sS'river'
p1184
I6
sS'approaching'
p1185
I12
sS'set'
p1186
I38
sS'For'
p1187
I21
sS'instituted'
p1188
I1
sS'sex'
p1189
I7
sS'_insist_'
p1190
I2
sS'knees'
p1191
I1
sS'#'
p1192
I1
sS'ill-treatment'
p1193
I1
sS'spirits'
p1194
I39
sS'seconded'
p1195
I1
sS'guinea'
p1196
I1
sS'rejecting'
p1197
I2
sS'avoidance'
p1198
I1
sS'acutely'
p1199
I4
sS'knowing'
p1200
I27
sS'hardship'
p1201
I1
sS'fidgety'
p1202
I1
sS'premises'
p1203
I1
sS'giddiness'
p1204
I1
sS'fidgets'
p1205
I1
sS'Against'
p1206
I1
sS'untouched'
p1207
I1
sS'death'
p1208
I8
sS'diminution'
p1209
I1
sS'prospects'
p1210
I4
sS'improved'
p1211
I6
sS'_mine_'
p1212
I4
sS'offending'
p1213
I3
sS'connection'
p1214
I20
sS'improves'
p1215
I2
sS'PURPOSE'
p1216
I1
sS'poverty'
p1217
I2
sS'approve'
p1218
I5
sS'WARRANTY'
p1219
I2
sS'bell'
p1220
I3
sS'acted'
p1221
I6
sS'coincidence'
p1222
I1
sS'archness'
p1223
I1
sS'indefinite'
p1224
I1
sS'worthless'
p1225
I2
sS'volubility'
p1226
I1
sS'monthly'
p1227
I1
sS'acceptance'
p1228
I4
sS'proprietor'
p1229
I3
sS'extravagant'
p1230
I4
sS'evenness'
p1231
I2
sS'extreme'
p1232
I4
sS'Care'
p1233
I1
sS'firm'
p1234
I3
sS'silenced'
p1235
I1
sS'fire'
p1236
I6
sS'upstart'
p1237
I1
sS'mildness'
p1238
I2
sS'39'
p1239
I1
sS'moderation'
p1240
I2
sS'awake'
p1241
I2
sS'Harriet'
p1242
I1
sS'uncertain'
p1243
I2
sS'admire'
p1244
I18
sS'33'
p1245
I1
sS'pressed'
p1246
I2
sS'error'
p1247
I6
sS'Miss'
p1248
I281
sS'owed'
p1249
I7
sS'indelicacy'
p1250
I2
sS'hoping'
p1251
I4
sS'agitation'
p1252
I6
sS'_accident_'
p1253
I1
sS'ducks'
p1254
I1
sS'vow'
p1255
I1
sS'owes'
p1256
I2
sS'vanish'
p1257
I1
sS'shorten'
p1258
I1
sS'elevated'
p1259
I2
sS'shorter'
p1260
I1
sS'severest'
p1261
I1
sS'Phillip'
p1262
I1
sS'forgiveness'
p1263
I2
sS'mortifying'
p1264
I6
sS'displeased'
p1265
I4
sS'affairs'
p1266
I7
sS'epithet'
p1267
I1
sS'viewing'
p1268
I4
sS'cucumber'
p1269
I1
sS'necessity'
p1270
I11
sS'infamous'
p1271
I4
sS'recent'
p1272
I5
sS'early'
p1273
I28
sS'expend'
p1274
I1
sS'earnest'
p1275
I15
sS'person'
p1276
I53
sS'regulating'
p1277
I1
sS'theatres'
p1278
I1
sS'redistribution'
p1279
I1
sS'comprise'
p1280
I1
sS'politely'
p1281
I3
sS'Grantley'
p1282
I1
sS'reap'
p1283
I1
sS'admission'
p1284
I1
sS'eager'
p1285
I12
sS'parents'
p1286
I7
sS'crying'
p1287
I2
sS'depravity'
p1288
I1
sS'surprised'
p1289
I34
sS'Both'
p1290
I3
sS'doors'
p1291
I8
sS'demands'
p1292
I1
sS'Of'
p1293
I13
sS'couple'
p1294
I8
sS'wives'
p1295
I1
sS'mischance'
p1296
I1
sS'suffering'
p1297
I2
sS'quest'
p1298
I7
sS'abound'
p1299
I1
sS'fortune'
p1300
I39
sS'emergence'
p1301
I1
sS'Or'
p1302
I2
sS'formal'
p1303
I8
sS'imposed'
p1304
I4
sS'governess'
p1305
I8
sS'communications'
p1306
I1
sS'continue'
p1307
I9
sS'OR'
p1308
I6
sS'privately'
p1309
I3
sS'methods'
p1310
I1
sS'Pray'
p1311
I13
sS'spring'
p1312
I5
sS'attics'
p1313
I1
sS'sight'
p1314
I17
sS'curious'
p1315
I5
sS'eclat'
p1316
I1
sS'pale'
p1317
I4
sS'momentary'
p1318
I3
sS'stables'
p1319
I1
sS'shall'
p1320
I159
sS'novelty'
p1321
I5
sS'behave'
p1322
I2
sS'seclusion'
p1323
I1
sS'inclination'
p1324
I22
sS'be'
p1325
I1254
sS'Look'
p1326
I1
sS'dictates'
p1327
I1
sS'agreement'
p1328
I20
sS'fretfulness'
p1329
I2
sS'nowhere'
p1330
I1
sS'relating'
p1331
I5
sS'dictated'
p1332
I1
sS'by'
p1333
I643
sS'Domain'
p1334
I1
sS'discontented'
p1335
I2
sS'deserved'
p1336
I6
sS'generous-hearted'
p1337
I1
sS'deserves'
p1338
I4
sS'regular'
p1339
I3
sS'forgave'
p1340
I1
sS'encumbrance'
p1341
I1
sS'Grosvenor'
p1342
I2
sS'Young'
p1343
I3
sS'awaited'
p1344
I1
sS'repaid'
p1345
I2
sS'Scarborough'
p1346
I1
sS'criticisms'
p1347
I1
sS'spending'
p1348
I5
sS'apartments'
p1349
I2
sS'submit'
p1350
I3
sS'custom'
p1351
I2
sS'thirdly'
p1352
I2
sS'unknowingly'
p1353
I1
sS'suit'
p1354
I7
sS':'
p1355
I154
sS'considerably'
p1356
I3
sS'impudent'
p1357
I1
sS'elsewhere'
p1358
I5
sS'inches'
p1359
I1
sS'graciously'
p1360
I1
sS'Steady'
p1361
I1
sS'undeserving'
p1362
I3
sS'line'
p1363
I8
sS'considerable'
p1364
I11
sS'posted'
p1365
I5
sS'blowsy'
p1366
I1
sS'inducements'
p1367
I1
sS'nieces'
p1368
I9
sS'Office'
p1369
I1
sS'up'
p1370
I124
sS'us'
p1371
I122
sS'mature'
p1372
I1
sS'Younge'
p1373
I4
sS'storing'
p1374
I1
sS'reconcile'
p1375
I1
sS'oddity'
p1376
I1
sS'defined'
p1377
I2
sS'likewise'
p1378
I17
sS'influence'
p1379
I14
sS'surpassing'
p1380
I1
sS'presided'
p1381
I1
sS'surveying'
p1382
I1
sS'graceful'
p1383
I1
sS'concealment'
p1384
I2
sS'stiffly'
p1385
I1
sS'codes'
p1386
I1
sS'fixing'
p1387
I2
sS'idleness'
p1388
I2
sS'scrape'
p1389
I1
sS'occasional'
p1390
I6
sS'condolence'
p1391
I1
sS'livings'
p1392
I1
sS'Gracechurch'
p1393
I9
sS'energetic'
p1394
I1
sS'oblige'
p1395
I6
sS'faintly'
p1396
I1
sS'BREACH'
p1397
I2
sS'sides'
p1398
I5
sS'hackney'
p1399
I3
sS'ago'
p1400
I26
sS'Bromley'
p1401
I1
sS'lane'
p1402
I9
sS'land'
p1403
I1
sS'phaeton'
p1404
I4
sS'finery'
p1405
I2
sS'resign'
p1406
I1
sS'age'
p1407
I15
sS'walked'
p1408
I44
sS'conjectured'
p1409
I2
sS'transient'
p1410
I1
sS'incomplete'
p1411
I1
sS'walker'
p1412
I3
sS'fresh'
p1413
I9
sS'having'
p1414
I90
sS'partial'
p1415
I10
sS'existing'
p1416
I2
sS'amiss'
p1417
I1
sS'inferences'
p1418
I1
sS'seemed'
p1419
I66
sS'concerned'
p1420
I18
sS'young'
p1421
I127
sS'send'
p1422
I23
sS'afflicting'
p1423
I1
sS'rejoined'
p1424
I1
sS'dislike'
p1425
I23
sS'pocket-book'
p1426
I1
sS'sent'
p1427
I21
sS'garden'
p1428
I12
sS'panting'
p1429
I1
sS'balls'
p1430
I7
sS'mixing'
p1431
I1
sS'Fixed'
p1432
I1
sS'continued'
p1433
I51
sS'sakes'
p1434
I2
sS'detested'
p1435
I1
sS'marry'
p1436
I42
sS'fewer'
p1437
I1
sS'anxious'
p1438
I25
sS'race'
p1439
I1
sS'insolence'
p1440
I1
sS'PGLAF'
p1441
I1
sS'unprofitable'
p1442
I1
sS'imply'
p1443
I1
sS"'This"
p1444
I1
sS'odd'
p1445
I5
sS'business'
p1446
I47
sS'expressed'
p1447
I26
sS'henceforth'
p1448
I1
sS'flowing'
p1449
I1
sS'advantageously'
p1450
I2
sS'led'
p1451
I18
sS'hard-heartedness'
p1452
I1
sS'gathered'
p1453
I2
sS'punch'
p1454
I1
sS'delivering'
p1455
I1
sS'resisting'
p1456
I1
sS'let'
p1457
I49
sS'licence'
p1458
I2
sS'consideration'
p1459
I14
sS'fifteen'
p1460
I4
sS'deduced'
p1461
I1
sS'great'
p1462
I140
sS'engage'
p1463
I5
sS'receive'
p1464
I31
sS'involved'
p1465
I3
sS'survey'
p1466
I1
sS'opinion'
p1467
I68
sS'makes'
p1468
I8
sS'involves'
p1469
I1
sS'complying'
p1470
I6
sS'distrusted'
p1471
I1
sS'desiring'
p1472
I2
sS'standing'
p1473
I13
sS'confidence'
p1474
I11
sS'exciting'
p1475
I2
sS'drawing-rooms'
p1476
I1
sS'next'
p1477
I69
sS'eleven'
p1478
I1
sS'assuring'
p1479
I4
sS'doubt'
p1480
I37
sS'feelingly'
p1481
I1
sS'Chatsworth'
p1482
I1
sS'infamy'
p1483
I4
sS'Plain'
p1484
I2
sS'occurred'
p1485
I14
sS'mend'
p1486
I5
sS'carrying'
p1487
I4
sS'gladly'
p1488
I1
sS'charity'
p1489
I1
sS'Madam'
p1490
I3
sS'drily'
p1491
I2
sS'retreated'
p1492
I1
sS'this'
p1493
I412
sS'challenge'
p1494
I1
sS'insists'
p1495
I1
sS'pour'
p1496
I1
sS'thin'
p1497
I5
sS'bent'
p1498
I3
sS'process'
p1499
I1
sS'lock'
p1500
I1
sS'rode'
p1501
I2
sS'transpired'
p1502
I1
sS'pieces'
p1503
I2
sS'high'
p1504
I17
sS'slit'
p1505
I1
sS"performer's"
p1506
I1
sS'sitting-room'
p1507
I1
sS'Christmas'
p1508
I6
sS'educational'
p1509
I1
sS'delay'
p1510
I6
sS'procured'
p1511
I4
sS'animal'
p1512
I1
sS'establishment'
p1513
I6
sS'pales'
p1514
I2
sS'greatly'
p1515
I14
sS'fine-looking'
p1516
I1
sS'singular'
p1517
I2
sS'pigs'
p1518
I1
sS'varied'
p1519
I3
sS'watering-place'
p1520
I1
sS'One'
p1521
I14
sS'Defects'
p1522
I1
sS'allow'
p1523
I29
sS'pyramids'
p1524
I1
sS'volunteers'
p1525
I5
sS'counted'
p1526
I1
sS'Aye'
p1527
I6
sS'move'
p1528
I3
sS'doubtful'
p1529
I2
sS'produced'
p1530
I12
sS"wife's"
p1531
I1
sS'perfect'
p1532
I17
sS'chosen'
p1533
I8
sS'dispose'
p1534
I1
sS'imperfection'
p1535
I1
sS'meantime'
p1536
I1
sS'degrees'
p1537
I1
sS'2015'
p1538
I1
sS'derivative'
p1539
I3
sS'volatility'
p1540
I1
sS'physicians'
p1541
I1
sS'designs'
p1542
I4
sS'olive-branch'
p1543
I3
sS'kiss'
p1544
I1
sS'pompous'
p1545
I3
sS'intelligent'
p1546
I4
sS'traced'
p1547
I2
sS'whither'
p1548
I2
sS'sufficiently'
p1549
I5
sS'jestingly'
p1550
I1
sS'truth'
p1551
I27
sS'accompanied'
p1552
I6
sS'beneath'
p1553
I5
sS'paler'
p1554
I1
sS'traces'
p1555
I1
sS'tents'
p1556
I1
sS'doing'
p1557
I25
sS'slightingly'
p1558
I1
sS'society'
p1559
I31
sS'_fine'
p1560
I1
sS'books'
p1561
I12
sS'thirteen'
p1562
I1
sS'irritation'
p1563
I3
sS'differ'
p1564
I1
sS'wander'
p1565
I1
sS'witness'
p1566
I3
sS"'"
p1567
I39
sS'Very'
p1568
I15
sS'acutest'
p1569
I1
sS'favours'
p1570
I2
sS'unprepared'
p1571
I1
sS'shut'
p1572
I5
sS'inferiority'
p1573
I3
sS'surely'
p1574
I3
sS'tempt'
p1575
I4
sS'assiduously'
p1576
I1
sS'could'
p1577
I515
sS'length'
p1578
I32
sS'alighted'
p1579
I1
sS'serenity'
p1580
I3
sS'removing'
p1581
I3
sS'staggered'
p1582
I1
sS'blown'
p1583
I1
sS'1342'
p1584
I1
sS'scene'
p1585
I16
sS'owned'
p1586
I3
sS'occurrences'
p1587
I4
sS'affliction'
p1588
I1
sS'tea-time'
p1589
I1
sS'behaves'
p1590
I2
sS'courted'
p1591
I2
sS'travelled'
p1592
I1
sS'behaved'
p1593
I8
sS'painful'
p1594
I13
sS'accompany'
p1595
I3
sS'chagrin'
p1596
I1
sS'beatings'
p1597
I1
sS'vouch'
p1598
I3
sS'Westerham'
p1599
I1
sS'Insolent'
p1600
I1
sS'interest_'
p1601
I1
sS'tortured'
p1602
I1
sS'LYDIA'
p1603
I1
sS'communicativeness'
p1604
I1
sS'repented'
p1605
I1
sS'sooner'
p1606
I13
sS'misunderstand'
p1607
I3
sS'collecting'
p1608
I2
sS'accusing'
p1609
I1
sS'false'
p1610
I12
sS'trusting'
p1611
I2
sS'gentle'
p1612
I5
sS'clearly'
p1613
I4
sS'viewed'
p1614
I1
sS'half-deserved'
p1615
I1
sS'resigned'
p1616
I6
sS'dishes'
p1617
I1
sS'studying'
p1618
I4
sS'awed'
p1619
I2
sS'patroness'
p1620
I7
sS'injunctions'
p1621
I1
sS'disturbers'
p1622
I1
sS'accuracy'
p1623
I1
sS'Laugh'
p1624
I1
sS'manor'
p1625
I2
sS'courtesy'
p1626
I2
sS'device'
p1627
I1
sS'Webbs'
p1628
I1
sS'clear-sighted'
p1629
I1
sS'Risk'
p1630
I1
sS'stronger'
p1631
I6
sS'face'
p1632
I27
sS'perceiving'
p1633
I4
sS'_he_'
p1634
I10
sS'wounded'
p1635
I3
sS'fact'
p1636
I14
sS'vacancy'
p1637
I1
sS'bring'
p1638
I18
sS'Obstinate'
p1639
I1
sS'Under'
p1640
I1
sS'unconnected'
p1641
I4
sS'rough'
p1642
I1
sS'brink'
p1643
I2
sS'principal'
p1644
I15
sS'nominally'
p1645
I1
sS'pause'
p1646
I18
sS'conciliate'
p1647
I1
sS'should'
p1648
I247
sS'riding'
p1649
I1
sS'wretchedness'
p1650
I2
sS'hope'
p1651
I121
sS'meant'
p1652
I27
sS'listened'
p1653
I21
sS'means'
p1654
I60
sS'Whether'
p1655
I1
sS'familiar'
p1656
I3
sS'irreproachable'
p1657
I1
sS'lucky'
p1658
I6
sS'prohibition'
p1659
I1
sS'listener'
p1660
I3
sS'unalterable'
p1661
I1
sS'antagonist'
p1662
I1
sS'Once'
p1663
I1
sS'Because'
p1664
I2
sS'taxes'
p1665
I1
sS'summon'
p1666
I1
sS'intermission'
p1667
I3
sS'disapprobation'
p1668
I7
sS'infliction'
p1669
I1
sS'rein'
p1670
I1
sS'MERCHANTIBILITY'
p1671
I1
sS'allusion'
p1672
I4
sS'exerted'
p1673
I2
sS'edition'
p1674
I1
sS'packed'
p1675
I1
sS'insulting'
p1676
I1
sS'mien'
p1677
I1
sS'thoughtlessness'
p1678
I2
sS'injustice'
p1679
I4
sS'email'
p1680
I2
sS'agreeable-looking'
p1681
I1
sS'barbarously'
p1682
I1
sS'Wickham'
p1683
I192
sS'P.'
p1684
I1
sS'restrictions'
p1685
I2
sS'invited'
p1686
I11
sS'etc'
p1687
I10
sS'doorway'
p1688
I1
sS'figures'
p1689
I1
sS'quitted'
p1690
I9
sS'strongly'
p1691
I7
sS'Would'
p1692
I3
sS'conclude'
p1693
I5
sS'authorised'
p1694
I2
sS'ca'
p1695
I2
sS'Girls'
p1696
I1
sS'laity'
p1697
I1
sS'frighted'
p1698
I1
sS'whispering'
p1699
I3
sS'steadiness'
p1700
I1
sS'poured'
p1701
I1
sS'feather'
p1702
I1
sS'waste'
p1703
I1
sS'recurring'
p1704
I1
sS'_own_'
p1705
I1
sS'neighbour'
p1706
I8
sS'banish'
p1707
I3
sS'wearied'
p1708
I1
sS'neices'
p1709
I1
sS'twenty-four'
p1710
I1
sS'deductible'
p1711
I1
sS'uncertainty'
p1712
I1
sS'site'
p1713
I4
sS'Literary'
p1714
I13
sS'propensities'
p1715
I1
sS'tenor'
p1716
I1
sS'ostentatious'
p1717
I1
sS'denial'
p1718
I3
sS'concealing'
p1719
I1
sS'Good-bye'
p1720
I2
sS'balm'
p1721
I1
sS'ball'
p1722
I34
sS'wisest'
p1723
I6
sS'upon'
p1724
I66
sS'proficiency'
p1725
I1
sS'infinite'
p1726
I2
sS'pleasantly'
p1727
I4
sS'off'
p1728
I62
sS'colour'
p1729
I12
sS'command'
p1730
I6
sS'drawing'
p1731
I3
sS'lest'
p1732
I8
sS'_most_'
p1733
I1
sS'newest'
p1734
I1
sS'negligence'
p1735
I1
sS'less'
p1736
I77
sS'moments'
p1737
I11
sS'rambled'
p1738
I1
sS'ceaseless'
p1739
I1
sS'rooms'
p1740
I8
sS'DEAR'
p1741
I7
sS'_missish_'
p1742
I1
sS'gentlest'
p1743
I1
sS'afflicted'
p1744
I1
sS'web'
p1745
I3
sS'generous'
p1746
I10
sS'clergyman'
p1747
I8
sS'wet'
p1748
I2
sS'fluctuating'
p1749
I1
sS'increased'
p1750
I11
sS'checking'
p1751
I2
sS'increases'
p1752
I1
sS'five'
p1753
I27
sS'super-excellent'
p1754
I1
sS'incessant'
p1755
I1
sS'uncompanionable'
p1756
I1
sS'undertaking'
p1757
I1
sS'become'
p1758
I9
sS'THOSE'
p1759
I1
sS'replacement'
p1760
I3
sS'amendment'
p1761
I2
sS'surest'
p1762
I1
sS'Blenheim'
p1763
I1
sS'choosing'
p1764
I1
sS'transport'
p1765
I1
sS'avoid'
p1766
I18
sS'delightful'
p1767
I19
sS'does'
p1768
I80
sS'passion'
p1769
I2
sS'_then_'
p1770
I1
sS'forgiven'
p1771
I1
sS'unassailed'
p1772
I1
sS're-kindled'
p1773
I1
sS'selecting'
p1774
I1
sS'posterity'
p1775
I1
sS'imaginary'
p1776
I5
sS'coldly'
p1777
I2
sS'stage'
p1778
I1
sS'gained'
p1779
I11
sS'repaired'
p1780
I3
sS'sister'
p1781
I213
sS'sagacity'
p1782
I1
sS'basis'
p1783
I1
sS'merited'
p1784
I2
sS'foretold'
p1785
I1
sS'insufficient'
p1786
I10
sS'alliance'
p1787
I3
sS'letters'
p1788
I15
sS'unfavourable'
p1789
I2
sS'_this_'
p1790
I6
sS'roads'
p1791
I1
sS'unfavourably'
p1792
I1
sS'quarrelling'
p1793
I1
sS'charities'
p1794
I1
sS'mere'
p1795
I5
sS'boisterously'
p1796
I1
sS'justifying'
p1797
I1
sS'spots'
p1798
I2
sS'startled'
p1799
I2
sS'troubling'
p1800
I1
sS'trademark/copyright'
p1801
I1
sS'naturally'
p1802
I12
sS'disengaged'
p1803
I2
sS'taciturn'
p1804
I1
sS'shyness'
p1805
I2
sS'construction'
p1806
I1
sS'detestable'
p1807
I1
sS'wretchedly'
p1808
I1
sS'places'
p1809
I5
sS'deficiency'
p1810
I2
sS'official'
p1811
I3
sS'triumphant'
p1812
I2
sS'undutiful'
p1813
I1
sS'placed'
p1814
I9
sS'convince'
p1815
I4
sS'distribution'
p1816
I6
sS'profusion'
p1817
I1
sS'bearing'
p1818
I2
sS'rightly'
p1819
I2
sS'West'
p1820
I1
sS'contribute'
p1821
I2
sS'inn'
p1822
I7
sS'hearers'
p1823
I1
sS'endeared'
p1824
I1
sS'deeper'
p1825
I3
sS'compared'
p1826
I3
sS'prosperous'
p1827
I2
sS'variety'
p1828
I8
sS'dilatory'
p1829
I2
sS'trials'
p1830
I1
sS'lately'
p1831
I11
sS'February'
p1832
I2
sS'repeat'
p1833
I5
sS'_surprised_'
p1834
I1
sS'chance'
p1835
I18
sS'capers'
p1836
I1
sS'South'
p1837
I1
sS'exposure'
p1838
I1
sS'transports'
p1839
I2
sS'lasted'
p1840
I3
sS'rule'
p1841
I2
sS'mercenary'
p1842
I5
sS'_She_'
p1843
I1
sS'villainous'
p1844
I1
sS'barouche-box'
p1845
I1
sS'expostulation'
p1846
I1
sS'child'
p1847
I14
sS'desirable'
p1848
I11
sS'rapid'
p1849
I3
sS'Lodge'
p1850
I7
sS'repress'
p1851
I1
sS'prognostics'
p1852
I1
sS'effectually'
p1853
I3
sS'neighbours'
p1854
I11
sS'worth'
p1855
I15
sS'compassion'
p1856
I14
sS'tickets'
p1857
I3
sS'bewildered'
p1858
I1
sS'abhorrence'
p1859
I6
sS'exaggerate'
p1860
I1
sS'red'
p1861
I3
sS'whist'
p1862
I5
sS'triumph'
p1863
I10
sS'monotonous'
p1864
I1
sS'occasioned'
p1865
I4
sS'Collins'
p1866
I178
sS'established'
p1867
I7
sS'disk'
p1868
I1
sS'irrevocably'
p1869
I1
sS'consequent'
p1870
I1
sS'above'
p1871
I21
sS'neat'
p1872
I1
sS'Sally'
p1873
I1
sS'told'
p1874
I69
sS'notions'
p1875
I3
sS'kindred'
p1876
I1
sS'equals'
p1877
I1
sS'simpers'
p1878
I1
sS'protection'
p1879
I2
sS'pursuit'
p1880
I6
sS'UNDER'
p1881
I1
sS'obtained'
p1882
I4
sS'daughter'
p1883
I84
sS'study'
p1884
I7
sS'cogent'
p1885
I1
sS'ductility'
p1886
I1
sS"evening's"
p1887
I1
sS'doleful'
p1888
I1
sS'secure'
p1889
I14
sS'DARCY'
p1890
I1
sS'angrily'
p1891
I1
sS'highly'
p1892
I28
sS'uncivil'
p1893
I5
sS'glance'
p1894
I7
sS'total'
p1895
I3
sS'chooses'
p1896
I8
sS'Stay'
p1897
I1
sS'seriously'
p1898
I11
sS'abusing'
p1899
I3
sS'aware'
p1900
I14
sS'separates'
p1901
I1
sS'continual'
p1902
I3
sS'striving'
p1903
I2
sS'EVEN'
p1904
I1
sS'word'
p1905
I49
sS'wore'
p1906
I2
sS'err'
p1907
I3
sS'1998'
p1908
I1
sS'work'
p1909
I64
sS'refusing'
p1910
I7
sS'worn'
p1911
I2
sS'ere'
p1912
I2
sS'unshackled'
p1913
I1
sS'overspread'
p1914
I3
sS'indicated'
p1915
I1
sS'respective'
p1916
I1
sS'indifferent'
p1917
I16
sS'gaped'
p1918
I1
sS'recovery'
p1919
I3
sS'inhabitants'
p1920
I3
sS'agony'
p1921
I1
sS'indirectly'
p1922
I1
sS'infringement'
p1923
I1
sS'interview'
p1924
I3
sS'disappoint'
p1925
I2
sS'ordinary'
p1926
I3
sS'resignation'
p1927
I1
sS'lad'
p1928
I1
sS'after'
p1929
I163
sS'Will'
p1930
I8
sS'lay'
p1931
I6
sS'law'
p1932
I6
sS'arch'
p1933
I1
sS'misleads'
p1934
I1
sS'retail'
p1935
I1
sS'hasty'
p1936
I5
sS'retort'
p1937
I1
sS'haste'
p1938
I9
sS'order'
p1939
I7
sS'GIVE'
p1940
I1
sS'modesty'
p1941
I6
sS'office'
p1942
I7
sS'devote'
p1943
I1
sS'consent'
p1944
I13
sS'_of_'
p1945
I1
sS'satisfied'
p1946
I34
sS'proportionate'
p1947
I1
sS'misconduct'
p1948
I2
sS'somewhere'
p1949
I4
sS'production'
p1950
I1
sS'precipitate'
p1951
I2
sS'damages'
p1952
I2
sS'then'
p1953
I161
sS'them'
p1954
I429
sS'affected'
p1955
I19
sS'safe'
p1956
I8
sS'break'
p1957
I2
sS'repulsive'
p1958
I1
sS'shameful'
p1959
I2
sS'they'
p1960
I476
sS'reasonably'
p1961
I4
sS'rocks'
p1962
I1
sS'relished'
p1963
I1
sS'deficient'
p1964
I5
sS'reasonable'
p1965
I15
sS'lifted'
p1966
I2
sS'schemes'
p1967
I7
sS'owner'
p1968
I8
sS'_know_'
p1969
I2
sS'network'
p1970
I1
sS'forty'
p1971
I1
sS'fellows'
p1972
I2
sS'strangers'
p1973
I4
sS'remorse'
p1974
I1
sS'self-deception'
p1975
I1
sS'forth'
p1976
I12
sS'impudence'
p1977
I3
sS'middle-aged'
p1978
I1
sS'disputes'
p1979
I1
sS'forcibly'
p1980
I4
sS'amazement'
p1981
I10
sS'shrubbery'
p1982
I4
sS'Cambridge'
p1983
I1
sS'recovering'
p1984
I4
sS'created'
p1985
I6
sS'September'
p1986
I1
sS'caprice'
p1987
I4
sS'oppose'
p1988
I3
sS'render'
p1989
I3
sS'synonymous'
p1990
I1
sS'another'
p1991
I53
sS'Perfectly'
p1992
I1
sS'electronic'
p1993
I27
sS'Smiles'
p1994
I1
sS'rated'
p1995
I1
sS'opportunity'
p1996
I30
sS'seduction'
p1997
I1
sS'plentiful'
p1998
I1
sS'airs'
p1999
I1
sS'observations'
p2000
I3
sS'paltry'
p2001
I2
sS'happily'
p2002
I5
sS'luncheon'
p2003
I1
sS'diversified'
p2004
I1
sS'rejected'
p2005
I4
sS'scenes'
p2006
I3
sS'seated'
p2007
I15
sS'See'
p2008
I2
sS'guilt'
p2009
I3
sS'domestics'
p2010
I1
sS'contrasted'
p2011
I1
sS'solely'
p2012
I4
sS'respecting'
p2013
I3
sS'portraits'
p2014
I2
sS'sportsmen'
p2015
I1
sS'_appearance_'
p2016
I3
sS'manner'
p2017
I97
sS'impelled'
p2018
I1
sS'peace-making'
p2019
I1
sS'contents'
p2020
I9
sS'forced'
p2021
I20
sS'quieter'
p2022
I1
sS'strength'
p2023
I6
sS'genuine'
p2024
I2
sS'convenient'
p2025
I5
sS'latter'
p2026
I22
sS'809'
p2027
I1
sS'subjects'
p2028
I10
sS'quieted'
p2029
I2
sS'completed'
p2030
I2
sS'circles'
p2031
I1
sS'nobody'
p2032
I15
sS'maiden'
p2033
I1
sS'distraction'
p2034
I1
sS'involving'
p2035
I2
sS'proverb'
p2036
I1
sS'grave'
p2037
I9
sS'peevish'
p2038
I2
sS'Lewis'
p2039
I3
sS'calculated'
p2040
I4
sS'adieus'
p2041
I2
sS'newcomers'
p2042
I1
sS'swamp'
p2043
I1
sS'accounted'
p2044
I2
sS'aunt'
p2045
I84
sS'notion'
p2046
I7
sS'fitted'
p2047
I6
sS'reserve'
p2048
I7
sS'decidedly'
p2049
I4
sS'Gouldings'
p2050
I2
sS'nephew'
p2051
I21
sS'Anne'
p2052
I5
sS'PRIDE'
p2053
I3
sS'resemblance'
p2054
I7
sS'just'
p2055
I72
sS'guidance'
p2056
I2
sS'industriously'
p2057
I1
sS'deepest'
p2058
I2
sS'pursuing'
p2059
I2
sS'adequate'
p2060
I1
sS'do'
p2061
I321
sS'loved'
p2062
I10
sS'de'
p2063
I39
sS'_shall_'
p2064
I1
sS'leisure'
p2065
I13
sS'degradation'
p2066
I1
sS'happiest'
p2067
I10
sS'unworthily'
p2068
I1
sS'prefaced'
p2069
I1
sS'runs'
p2070
I1
sS'covering'
p2071
I2
sS'exchanged'
p2072
I1
sS'repugnant'
p2073
I1
sS'half-laughing'
p2074
I1
sS'complimenting'
p2075
I1
sS'explanations'
p2076
I2
sS'inns'
p2077
I1
sS'miserably'
p2078
I1
sS'observer'
p2079
I2
sS'observed'
p2080
I27
sS'checks'
p2081
I1
sS'depends'
p2082
I1
sS'miserable'
p2083
I6
sS'_my_'
p2084
I12
sS'diffidence'
p2085
I5
sS'away'
p2086
I119
sS'gentleman'
p2087
I37
sS'POSSIBILITY'
p2088
I1
sS'unable'
p2089
I14
sS'drawn'
p2090
I8
sS'Happy'
p2091
I2
sS'we'
p2092
I196
sS'loose'
p2093
I2
sS'terms'
p2094
I41
sS'admiring'
p2095
I2
sS'unfold'
p2096
I1
sS'disservice'
p2097
I1
sS'_had'
p2098
I1
sS'kitchen'
p2099
I1
sS'received'
p2100
I66
sS'ill'
p2101
I43
sS'matrimony'
p2102
I6
sS'satisfactions'
p2103
I1
sS'ingenious'
p2104
I2
sS'uniformity'
p2105
I1
sS'tone'
p2106
I16
sS'excess'
p2107
I2
sS'dawdled'
p2108
I1
sS'speak'
p2109
I65
sS'gratitude'
p2110
I24
sS'unhappily'
p2111
I3
sS'condemned'
p2112
I2
sS'warmth'
p2113
I8
sS'duties'
p2114
I2
sS'repelled'
p2115
I1
sS'families'
p2116
I7
sS'easy'
p2117
I25
sS'attacked'
p2118
I1
sS'concerning'
p2119
I7
sS'excite'
p2120
I3
sS'coherent'
p2121
I1
sS'harboured'
p2122
I1
sS'brightening'
p2123
I1
sS'gracious'
p2124
I8
sS'applied'
p2125
I12
sS'spasms'
p2126
I1
sS'publicly'
p2127
I3
sS'arm-in-arm'
p2128
I1
sS'twelvemonth'
p2129
I7
sS'air'
p2130
I30
sS'rationally'
p2131
I3
sS'abrupt'
p2132
I1
sS'applies'
p2133
I1
sS'aid'
p2134
I1
sS'voice'
p2135
I22
sS'mistake'
p2136
I8
sS'palings'
p2137
I1
sS'discourses'
p2138
I1
sS'comparative'
p2139
I3
sS'confirmed'
p2140
I4
sS'descent'
p2141
I3
sS'perform'
p2142
I5
sS'authorise'
p2143
I1
sS'Stop'
p2144
I1
sS'Pratt'
p2145
I2
sS'sheltered'
p2146
I2
sS'unconcern'
p2147
I3
sS'independent'
p2148
I2
sS'fuss'
p2149
I1
sS'springing'
p2150
I2
sS'swell'
p2151
I1
sS'rail'
p2152
I1
sS'evil'
p2153
I14
sS'hand'
p2154
I24
sS'liberties'
p2155
I1
sS'confiding'
p2156
I2
sS'blamed'
p2157
I1
sS'kept'
p2158
I17
sS'humble'
p2159
I9
sS'tranquilly'
p2160
I1
sS'contact'
p2161
I3
sS'mamma'
p2162
I8
sS'tormenting'
p2163
I1
sS'impertinent'
p2164
I6
sS'the'
p2165
I4218
sS'musical'
p2166
I1
sS'loo-table'
p2167
I1
sS'repose'
p2168
I1
sS'farther'
p2169
I15
sS'victim'
p2170
I1
sS'Surprise'
p2171
I1
sS'electronically'
p2172
I2
sS'adding'
p2173
I5
sS'hills'
p2174
I3
sS"ma'am"
p2175
I7
sS'belongs'
p2176
I2
sS'Say'
p2177
I2
sS"se'ennight"
p2178
I1
sS'boxes'
p2179
I1
sS'injuring'
p2180
I1
sS'disadvantage'
p2181
I5
sS'Presuming'
p2182
I1
sS'disinclination'
p2183
I2
sS'Certain'
p2184
I1
sS'night'
p2185
I34
sS'invaluable'
p2186
I3
sS'security'
p2187
I3
sS'S.'
p2188
I2
sS'//pglaf.org/donate'
p2189
I1
sS'sends'
p2190
I1
sS'flatter'
p2191
I10
sS'eyeing'
p2192
I1
sS'born'
p2193
I2
sS'bore'
p2194
I9
sS'ungracious'
p2195
I3
sS'congratulate'
p2196
I7
sS'unavoidable'
p2197
I1
sS'misled'
p2198
I1
sS'asking'
p2199
I14
sS'Let'
p2200
I26
sS'_making_'
p2201
I1
sS'participation'
p2202
I1
sS'illustration'
p2203
I1
sS'disappointments'
p2204
I1
sS'provocations'
p2205
I1
sS'peep'
p2206
I1
sS'Creating'
p2207
I1
sS'dines'
p2208
I1
sS'theirs'
p2209
I2
sS'months'
p2210
I20
sS'deeply-rooted'
p2211
I1
sS'dined'
p2212
I7
sS'cherish'
p2213
I1
sS'impenetrably'
p2214
I1
sS'considerations'
p2215
I1
sS'denominated'
p2216
I1
sS'wasting'
p2217
I1
sS'Make'
p2218
I2
sS'profession'
p2219
I7
sS'delighted'
p2220
I23
sS'rendering'
p2221
I1
sS'speediest'
p2222
I1
sS'PUNITIVE'
p2223
I1
sS'formidable'
p2224
I4
sS'strangely'
p2225
I1
sS'deception'
p2226
I1
sS'deliberated'
p2227
I1
sS'fervent'
p2228
I1
sS'derision'
p2229
I2
sS'accordingly'
p2230
I5
sS'way'
p2231
I110
sS'editions'
p2232
I4
sS'was'
p2233
I1841
sS'lowest'
p2234
I1
sS'overjoyed'
p2235
I1
sS'diligence'
p2236
I1
sS'becoming'
p2237
I3
sS'converse'
p2238
I4
sS'arrear'
p2239
I1
sS'consolatory'
p2240
I1
sS'observances'
p2241
I1
sS'elderly'
p2242
I1
sS'astonished'
p2243
I14
sS'true'
p2244
I22
sS'absent'
p2245
I4
sS'maximum'
p2246
I1
sS'overruled'
p2247
I1
sS'anew'
p2248
I1
sS'inquiring'
p2249
I5
sS'promises'
p2250
I3
sS'scandalous'
p2251
I3
sS'request'
p2252
I13
sS'wretched'
p2253
I9
sS'postscript'
p2254
I3
sS'guessed'
p2255
I3
sS'subsist'
p2256
I1
sS'promised'
p2257
I21
sS'physical'
p2258
I2
sS'curiosities'
p2259
I1
sS'disputable'
p2260
I1
sS'dying'
p2261
I3
sS'meanness'
p2262
I1
sS'interested'
p2263
I7
sS'Ignorant'
p2264
I1
sS'holding'
p2265
I2
sS'test'
p2266
I1
sS'unwilling'
p2267
I9
sS'shrink'
p2268
I1
sS'brothers'
p2269
I2
sS"o'clock"
p2270
I5
sS'welcome'
p2271
I12
sS'polite'
p2272
I5
sS'assiduous'
p2273
I1
sS'scores'
p2274
I1
sS'dissipation'
p2275
I1
sS'five-and-twenty'
p2276
I2
sS'bestowed'
p2277
I8
sS'interval'
p2278
I4
sS'Mission'
p2279
I1
sS'together'
p2280
I64
sS'reception'
p2281
I9
sS'Longbourn'
p2282
I88
sS'songs'
p2283
I1
sS'concept'
p2284
I2
sS'broke'
p2285
I2
sS'dance'
p2286
I32
sS'indicating'
p2287
I1
sS'horseback'
p2288
I2
sS'grateful'
p2289
I13
sS'polluted'
p2290
I1
sS'devoted'
p2291
I3
sS'soothed'
p2292
I1
sS'certainly'
p2293
I65
sS'Sept.'
p2294
I1
sS'Importance'
p2295
I1
sS'dissatisfied'
p2296
I4
sS'brown'
p2297
I1
sS'liability'
p2298
I2
sS'trouble'
p2299
I21
sS'Volunteers'
p2300
I3
sS'perceived'
p2301
I12
sS'Just'
p2302
I1
sS'presented'
p2303
I2
sS'turns'
p2304
I2
sS'F3'
p2305
I1
sS'ascertaining'
p2306
I1
sS'WILL'
p2307
I1
sS'George'
p2308
I8
sS'upper'
p2309
I2
sS"what's-his-name"
p2310
I1
sS'revolution'
p2311
I1
sS'regret'
p2312
I19
sS'regained'
p2313
I1
sS'discover'
p2314
I9
sS'cost'
p2315
I7
sS'scarcity'
p2316
I1
sS'perplexity'
p2317
I2
sS'perusing'
p2318
I1
sS'appear'
p2319
I31
sS'assistance'
p2320
I13
sS'uniform'
p2321
I2
sS'ill-nature'
p2322
I1
sS'Imagine'
p2323
I1
sS'During'
p2324
I2
sS'oaks'
p2325
I1
sS'appeal'
p2326
I2
sS'satisfy'
p2327
I11
sS'muslin'
p2328
I3
sS'disclaim'
p2329
I2
sS'English'
p2330
I1
sS'appears'
p2331
I4
sS'change'
p2332
I24
sS'sending'
p2333
I2
sS'impatiently'
p2334
I5
sS'twenty-seven'
p2335
I2
sS'trial'
p2336
I2
sS'Dear'
p2337
I7
sS'Lizzy'
p2338
I95
sS'matrimonial'
p2339
I1
sS'retired'
p2340
I3
sS'marked'
p2341
I15
sS'sincerely'
p2342
I9
sS'puffed'
p2343
I1
sS'unappeasable'
p2344
I1
sS'market'
p2345
I1
sS'prove'
p2346
I8
sS'captivate'
p2347
I1
sS'beneficence'
p2348
I1
sS'live'
p2349
I21
sS'wonderfully'
p2350
I2
sS'intently'
p2351
I2
sS'entrance'
p2352
I12
sS'Mount'
p2353
I2
sS'repentance'
p2354
I1
sS'envelope'
p2355
I3
sS'breakfast-parlour'
p2356
I1
sS'clue'
p2357
I1
sS'commissioned'
p2358
I1
sS'hesitated'
p2359
I3
sS'decked'
p2360
I1
sS'hardest'
p2361
I1
sS'can'
p2362
I325
sS'heart'
p2363
I45
sS'hears'
p2364
I1
sS'pauses'
p2365
I2
sS'attribute'
p2366
I4
sS'stoutly'
p2367
I1
sS'paused'
p2368
I3
sS'heard'
p2369
I84
sS'detaching'
p2370
I1
sS'chin'
p2371
I1
sS'phrase'
p2372
I4
sS'occur'
p2373
I5
sS'productive'
p2374
I1
sS'dispositions'
p2375
I1
sS'discussion'
p2376
I5
sS'//pglaf.org'
p2377
I2
sS'write'
p2378
I38
sS'allowable'
p2379
I1
sS'economy'
p2380
I5
sS'License'
p2381
I10
sS'sacrifice'
p2382
I8
sS'disgusted'
p2383
I3
sS'imputing'
p2384
I1
sS'petulance'
p2385
I1
sS'remember'
p2386
I20
sS'whenever'
p2387
I22
sS'_tolerable_'
p2388
I1
sS'explicit'
p2389
I2
sS'acrimony'
p2390
I1
sS'offend'
p2391
I3
sS'serving'
p2392
I1
sS'neighbourhoods'
p2393
I1
sS'Author'
p2394
I1
sS'indeed'
p2395
I76
sS'forfeit'
p2396
I1
sS'displayed'
p2397
I4
sS'consulting'
p2398
I2
sS'bewitching'
p2399
I1
sS'playful'
p2400
I2
sS'ended'
p2401
I4
sS'genteel'
p2402
I3
sS'cold'
p2403
I18
sS'still'
p2404
I72
sS'birds'
p2405
I2
sS'freckled'
p2406
I1
sS'trifle'
p2407
I5
sS'acknowledge'
p2408
I8
sS'selves'
p2409
I1
sS'vicinity'
p2410
I1
sS'inflicted'
p2411
I1
sS'forms'
p2412
I2
sS'window'
p2413
I16
sS'spacious'
p2414
I1
sS'dreadfully'
p2415
I2
sS'atonement'
p2416
I2
sS'correspondence'
p2417
I5
sS'_Mr'
p2418
I1
sS'non'
p2419
I1
sS'Compliance'
p2420
I1
sS'introduce'
p2421
I11
sS'liberality'
p2422
I2
sS'half'
p2423
I45
sS'not'
p2424
I1527
sS'courtship'
p2425
I2
sS'now'
p2426
I192
sS'provision'
p2427
I3
sS'discuss'
p2428
I2
sS'nor'
p2429
I66
sS'concerto'
p2430
I1
sS'intrigues'
p2431
I1
sS'thankful'
p2432
I8
sS'servant'
p2433
I16
sS'drop'
p2434
I3
sS'entirely'
p2435
I25
sS'vexation'
p2436
I10
sS'domain'
p2437
I7
sS'prompted'
p2438
I1
sS'directing'
p2439
I2
sS'Except'
p2440
I3
sS'hurried'
p2441
I10
sS'year'
p2442
I28
sS'happen'
p2443
I12
sS'Caroline'
p2444
I14
sS'amusement'
p2445
I12
sS'circumspection'
p2446
I2
sS'digressions'
p2447
I1
sS'could.'
p2448
I1
sS'space'
p2449
I2
sS'hastily'
p2450
I9
sS'increase'
p2451
I6
sS'rational'
p2452
I10
sS'housemaid'
p2453
I2
sS'receiving'
p2454
I21
sS'shows'
p2455
I4
sS'inevitably'
p2456
I1
sS'intruding'
p2457
I2
sS'advantages'
p2458
I7
sS'counteracted'
p2459
I2
sS'obligation'
p2460
I6
sS'inevitable'
p2461
I3
sS'card'
p2462
I3
sS'care'
p2463
I34
sS'chose'
p2464
I16
sS'contemplation'
p2465
I4
sS'transition'
p2466
I1
sS'fonder'
p2467
I2
sS'honest'
p2468
I1
sS'Promise'
p2469
I1
sS'invitation'
p2470
I34
sS'thankfulness'
p2471
I1
sS'promotion'
p2472
I1
sS'profess'
p2473
I1
sS'DISCLAIMER'
p2474
I1
sS'Even'
p2475
I2
sS'benefited'
p2476
I4
sS'striking'
p2477
I3
sS'omitted'
p2478
I1
sS'There'
p2479
I66
sS'comprised'
p2480
I2
sS'Till'
p2481
I6
sS'directly'
p2482
I23
sS'impossible'
p2483
I42
sS'message'
p2484
I3
sS'drove'
p2485
I11
sS'Ever'
p2486
I1
sS'size'
p2487
I4
sS'impetuous'
p2488
I1
sS'inconceivable'
p2489
I1
sS'checked'
p2490
I5
sS'silent'
p2491
I26
sS'caught'
p2492
I11
sS'_some_'
p2493
I4
sS'vehemence'
p2494
I1
sS'frame'
p2495
I1
sS'friend'
p2496
I111
sS'larder'
p2497
I1
sS'mostly'
p2498
I1
sS'that'
p2499
I1509
sS'consigned'
p2500
I1
sS'brains'
p2501
I1
sS'inmates'
p2502
I1
sS'than'
p2503
I284
sS'affronted'
p2504
I2
sS'accordance'
p2505
I2
sS'transferred'
p2506
I1
sS'discernment'
p2507
I2
sS'Hurst'
p2508
I33
sS'fruits'
p2509
I2
sS'accessed'
p2510
I1
sS'profuse'
p2511
I1
sS'respectability'
p2512
I5
sS'troublesome'
p2513
I1
sS'angel'
p2514
I3
sS'remained'
p2515
I23
sS'punctually'
p2516
I3
sS'anger'
p2517
I13
sS'breakfast'
p2518
I20
sS'recover'
p2519
I6
sS'offering'
p2520
I3
sS'overcoming'
p2521
I1
sS'Blame'
p2522
I1
sS'equipment'
p2523
I3
sS'online'
p2524
I4
sS'swelled'
p2525
I1
sS'authorising'
p2526
I1
sS'begin'
p2527
I12
sS'hall-door'
p2528
I1
sS'price'
p2529
I2
sS'plainer'
p2530
I1
sS']'
p2531
I2
sS'envying'
p2532
I1
sS'forever'
p2533
I3
sS'Foundation'
p2534
I24
sS'steady'
p2535
I11
sS'ordination'
p2536
I1
sS'Web'
p2537
I3
sS'_present_'
p2538
I1
sS'fifty'
p2539
I6
sS'discovered'
p2540
I8
sS'gratified'
p2541
I14
sS'fifth'
p2542
I1
sS'ground'
p2543
I11
sS'busily'
p2544
I3
sS'title'
p2545
I1
sS'proportion'
p2546
I4
sS'staid'
p2547
I2
sS'only'
p2548
I210
sS'PG'
p2549
I1
sS'incivility'
p2550
I3
sS'duel'
p2551
I1
sS'truly'
p2552
I7
sS'bracelets'
p2553
I1
sS'prided'
p2554
I1
sS'honours'
p2555
I2
sS'July'
p2556
I1
sS'stroll'
p2557
I1
sS'Pardon'
p2558
I3
sS'seldom'
p2559
I9
sS'effectual'
p2560
I1
sS'husband'
p2561
I49
sS'burst'
p2562
I3
sS'unfit'
p2563
I2
sS'sport'
p2564
I4
sS'reputed'
p2565
I2
sS'concern'
p2566
I26
sS'expeditiously'
p2567
I2
sS'suspects'
p2568
I1
sS'leaning'
p2569
I1
sS'corroboration'
p2570
I1
sS'3'
p2571
I6
sS'complexion'
p2572
I7
sS'between'
p2573
I60
sS'justified'
p2574
I5
sS'notice'
p2575
I23
sS'prettiest'
p2576
I1
sS'blame'
p2577
I15
sS'unbending'
p2578
I1
sS'Were'
p2579
I5
sS'article'
p2580
I3
sS'discernible'
p2581
I1
sS'resides'
p2582
I1
sS'Give'
p2583
I2
sS'reasonableness'
p2584
I1
sS'unseldom'
p2585
I1
sS'enabling'
p2586
I1
sS'haunch'
p2587
I1
sS'Through'
p2588
I1
sS'LIZZY'
p2589
I2
sS'comes'
p2590
I16
sS'Eager'
p2591
I1
sS'Interested'
p2592
I1
sS'learning'
p2593
I1
sS'proved'
p2594
I17
sS'_have_'
p2595
I2
sS'cares'
p2596
I2
sS'informed'
p2597
I11
sS'cared'
p2598
I7
sS'disclosed'
p2599
I1
sS'solaced'
p2600
I1
sS'suspected'
p2601
I9
sS'realities'
p2602
I1
sS'soothe'
p2603
I1
sS'coquetry'
p2604
I1
sS'these'
p2605
I62
sS'freely'
p2606
I8
sS'OWNER'
p2607
I1
sS"person's"
p2608
I1
sS'raptures'
p2609
I7
sS'commanded'
p2610
I2
sS'Unwilling'
p2611
I1
sS'Resignation'
p2612
I1
sS'northward'
p2613
I1
sS'develop'
p2614
I1
sS'innocently'
p2615
I1
sS'inquire'
p2616
I10
sS'gentlemen'
p2617
I38
sS'inquiry'
p2618
I10
sS'campful'
p2619
I1
sS"brother's"
p2620
I2
sS'noble'
p2621
I11
sS'pedantic'
p2622
I1
sS'finish'
p2623
I4
sS'closest'
p2624
I2
sS'enjoyment'
p2625
I13
sS'fruit'
p2626
I1
sS'unasked'
p2627
I1
sS'complained'
p2628
I1
sS'charges'
p2629
I1
sS"Jane's"
p2630
I2
sS'authoritative'
p2631
I2
sS'severe'
p2632
I8
sS'demean'
p2633
I1
sS'alleviate'
p2634
I1
sS'_They_'
p2635
I1
sS'charged'
p2636
I1
sS'Service'
p2637
I1
sS'generally'
p2638
I16
sS'valuable'
p2639
I9
sS'speed'
p2640
I1
sS'mingling'
p2641
I1
sS'Her'
p2642
I85
sS'thinking'
p2643
I21
sS'improvement'
p2644
I9
sS'allude'
p2645
I1
sS'treatment'
p2646
I5
sS'struck'
p2647
I14
sS'real'
p2648
I31
sS'read'
p2649
I41
sS'offence'
p2650
I2
sS'discontinue'
p2651
I1
sS'Project'
p2652
I83
sS'quickness'
p2653
I3
sS'_she_'
p2654
I13
sS'listening'
p2655
I10
sS'using'
p2656
I5
sS'execution'
p2657
I4
sS'lady'
p2658
I53
sS'conversing'
p2659
I3
sS'heightened'
p2660
I8
sS'pounds'
p2661
I24
sS'engross'
p2662
I1
sS'benefit'
p2663
I5
sS'fully'
p2664
I5
sS'animating'
p2665
I1
sS'Before'
p2666
I3
sS'twelve'
p2667
I4
sS'falsehood'
p2668
I7
sS'exposed'
p2669
I2
sS'DAMAGE'
p2670
I1
sS'duration'
p2671
I2
sS'intend'
p2672
I3
sS'Mary'
p2673
I39
sS'passions'
p2674
I1
sS'perverse'
p2675
I1
sS'assembly'
p2676
I9
sS'dejection'
p2677
I3
sS'Conceal'
p2678
I1
sS'sixth'
p2679
I1
sS'equivalent'
p2680
I1
sS'regimentals'
p2681
I3
sS'waiting-woman'
p2682
I1
sS'uneasy'
p2683
I8
sS'innocence'
p2684
I1
sS'partiality'
p2685
I13
sS'handsomest'
p2686
I4
sS'throw'
p2687
I8
sS'comparison'
p2688
I13
sS'friendship'
p2689
I9
sS'boldly'
p2690
I1
sS'fell'
p2691
I2
sS'remonstrance'
p2692
I1
sS'conceals'
p2693
I1
sS'testimony'
p2694
I2
sS'deranged'
p2695
I1
sS'dazzling'
p2696
I1
sS'verily'
p2697
I1
sS'nowadays'
p2698
I1
sS'your'
p2699
I404
sS'forwarded'
p2700
I2
sS'prepare'
p2701
I8
sS'assumed'
p2702
I1
sS'loo'
p2703
I1
sS'suppositions'
p2704
I1
sS'start'
p2705
I3
sS'forwarder'
p2706
I1
sS'low'
p2707
I8
sS'lot'
p2708
I3
sS'politeness'
p2709
I17
sS'covies'
p2710
I1
sS'delayed'
p2711
I6
sS'pitched'
p2712
I1
sS'trying'
p2713
I6
sS'copied'
p2714
I3
sS'hire'
p2715
I1
sS'circulation'
p2716
I2
sS'default'
p2717
I1
sS'lawfully'
p2718
I1
sS'side-glass'
p2719
I1
sS'self-conceit'
p2720
I1
sS'Esq'
p2721
I1
sS'describe'
p2722
I7
sS'moved'
p2723
I9
sS'unwelcome'
p2724
I4
sS'green'
p2725
I1
sS'thither'
p2726
I9
sS'valid'
p2727
I1
sS'evenings'
p2728
I4
sS'you'
p2729
I1180
sS'forcing'
p2730
I1
sS'poor'
p2731
I30
sS'Great'
p2732
I1
sS'cautioning'
p2733
I2
sS'forgiving'
p2734
I1
sS'suited'
p2735
I3
sS'pool'
p2736
I1
sS'_eldest_'
p2737
I1
sS'building'
p2738
I3
sS'Executive'
p2739
I1
sS'untidy'
p2740
I1
sS'Dearest'
p2741
I2
sS'profits'
p2742
I1
sS'doubted'
p2743
I8
sS'embracing'
p2744
I2
sS'since'
p2745
I54
sS'pointing'
p2746
I5
sS'groundwork'
p2747
I1
sS'month'
p2748
I8
sS'ceased'
p2749
I6
sS'thoughtful'
p2750
I1
sS'Take'
p2751
I3
sS'superciliousness'
p2752
I1
sS'dreadful'
p2753
I11
sS'unenforceability'
p2754
I1
sS'pledged'
p2755
I2
sS'solicit'
p2756
I3
sS'resounding'
p2757
I1
sS'Recovering'
p2758
I1
sS'very'
p2759
I471
sS'horror'
p2760
I5
sS'coloured'
p2761
I5
sS'decide'
p2762
I4
sS'austerity'
p2763
I1
sS'Salt'
p2764
I1
sS'REPLACEMENT'
p2765
I1
sS'_violent'
p2766
I1
sS'heaven'
p2767
I1
sS'--'
p2768
I397
sS'gaieties'
p2769
I2
sS'mild'
p2770
I1
sS"Darcy's"
p2771
I9
sS'Breakfast'
p2772
I1
sS'streets'
p2773
I1
sS'unheard'
p2774
I1
sS'4557'
p2775
I1
sS'casual'
p2776
I1
sS'impertinence'
p2777
I8
sS'conscience'
p2778
I5
sS'witnessed'
p2779
I4
sS'Gardiners'
p2780
I6
sS'emotions'
p2781
I1
sS'learned'
p2782
I3
sS'acknowledgments'
p2783
I2
sS'entailing'
p2784
I1
sS'witticisms'
p2785
I1
sS'Proud'
p2786
I1
sS'answers'
p2787
I1
sS'trunk'
p2788
I1
sS'praises'
p2789
I2
sS'strong'
p2790
I19
sS'advisable'
p2791
I6
sS'conviction'
p2792
I16
sS'disclaimers'
p2793
I1
sS'inspired'
p2794
I2
sS'losses'
p2795
I1
sS'amount'
p2796
I2
sS'_all_'
p2797
I4
sS'inspires'
p2798
I1
sS'family'
p2799
I150
sS'requiring'
p2800
I5
sS'Clarke'
p2801
I1
sS'courtier'
p2802
I1
sS'_that_'
p2803
I30
sS'put'
p2804
I30
sS'aimed'
p2805
I1
sS'attendant'
p2806
I1
sS'takes'
p2807
I7
sS'amaze'
p2808
I1
sS'probabilities'
p2809
I1
sS'contains'
p2810
I1
sS'unpleasant'
p2811
I8
sS'weak-spirited'
p2812
I1
sS'taken'
p2813
I31
sS'injury'
p2814
I1
sS'Undoubtedly'
p2815
I3
sS'St'
p2816
I1
sS'excuse'
p2817
I14
sS'So'
p2818
I14
sS'deigned'
p2819
I3
sS'impulse'
p2820
I3
sS'hurry'
p2821
I11
sS'pretense'
p2822
I1
sS'respected'
p2823
I3
sS'Believe'
p2824
I3
sS'sportive'
p2825
I1
sS'_feel_'
p2826
I1
sS'dining-parlour'
p2827
I4
sS'offended'
p2828
I9
sS'To-morrow'
p2829
I1
sS'nine'
p2830
I2
sS'fronted'
p2831
I2
sS'writing-table'
p2832
I1
sS'parasol'
p2833
I2
sS'history'
p2834
I4
sS'cows'
p2835
I1
sS'exclude'
p2836
I1
sS'firmly'
p2837
I1
sS'stayed'
p2838
I7
sS'foreseen'
p2839
I2
sS'unlucky'
p2840
I10
sS'Fatigued'
p2841
I1
sS'reject'
p2842
I4
sS'_two_'
p2843
I3
sS'tried'
p2844
I16
sS'rude'
p2845
I3
sS'derived'
p2846
I2
sS'long'
p2847
I100
sS'tries'
p2848
I1
sS'*****'
p2849
I2
sS'_not_'
p2850
I8
sS'derives'
p2851
I1
sS'a'
p2852
I1955
sS'contrived'
p2853
I3
sS'renewing'
p2854
I2
sS'dread'
p2855
I4
sS'healthfulness'
p2856
I1
sS'banks'
p2857
I2
sS'bustle'
p2858
I1
sS'help'
p2859
I44
sS'soon'
p2860
I214
sS'held'
p2861
I5
sS'_be_'
p2862
I1
sS'comfortless'
p2863
I1
sS'committed'
p2864
I1
sS'seeming'
p2865
I3
sS'Copyright'
p2866
I1
sS'reluctance'
p2867
I1
sS'actually'
p2868
I12
sS'absence'
p2869
I26
sS'Putting'
p2870
I1
sS'astonish'
p2871
I2
sS'annual'
p2872
I1
sS'finer'
p2873
I5
sS'fool'
p2874
I3
sS'evening'
p2875
I73
sS'anticipated'
p2876
I4
sS'EIN'
p2877
I1
sS'foot'
p2878
I1
sS'slighted'
p2879
I3
sS'well-known'
p2880
I1
sS'occasions'
p2881
I8
sS'intervene'
p2882
I1
sS'bless'
p2883
I3
sS'did'
p2884
I253
sS'stopped'
p2885
I6
sS'referred'
p2886
I1
sS'heavy'
p2887
I3
sS'transcribe'
p2888
I1
sS'End'
p2889
I1
sS'restless'
p2890
I1
sS'pin-money'
p2891
I1
sS'energy.'
p2892
I1
sS'beyond'
p2893
I35
sS'absurdity'
p2894
I1
sS'event'
p2895
I22
sS'veneration'
p2896
I1
sS'unnatural'
p2897
I2
sS'surrounded'
p2898
I1
sS'meditating'
p2899
I3
sS'publish'
p2900
I1
sS'settle'
p2901
I7
sS'safety'
p2902
I1
sS'7'
p2903
I1
sS'outrun'
p2904
I1
sS'gardener'
p2905
I2
sS'None'
p2906
I1
sS'drink'
p2907
I7
sS'dictatorial'
p2908
I1
sS'dirt'
p2909
I2
sS'gamester'
p2910
I1
sS'houses'
p2911
I4
sS'reason'
p2912
I51
sS'brightest'
p2913
I2
sS'ask'
p2914
I32
sS'earliest'
p2915
I6
sS'curtailed'
p2916
I1
sS'diffused'
p2917
I1
sS'unbecoming'
p2918
I1
sS'perceptible'
p2919
I1
sS'persists'
p2920
I1
sS'curtsey'
p2921
I3
sS'bridegroom'
p2922
I1
sS'cheering'
p2923
I2
sS'expecting'
p2924
I5
sS'Respect'
p2925
I1
sS'blush'
p2926
I4
sS'probability'
p2927
I9
sS'quarreled'
p2928
I1
sS'reflected'
p2929
I3
sS'elder'
p2930
I12
sS'unexpected'
p2931
I8
sS'miss'
p2932
I2
sS"minutes'"
p2933
I1
sS'extenuating'
p2934
I1
sS'horse'
p2935
I3
sS'perturbation'
p2936
I2
sS'station'
p2937
I2
sS'scheme'
p2938
I17
sS'bowed'
p2939
I3
sS'storm'
p2940
I2
sS'behind'
p2941
I14
sS'minutest'
p2942
I1
sS'dissemble'
p2943
I1
sS'inventing'
p2944
I1
sS'_I_'
p2945
I4
sS'hundred'
p2946
I6
sS'kindly'
p2947
I7
sS'performers'
p2948
I1
sS'miseries'
p2949
I1
sS'anticipate'
p2950
I1
sS'hesitating'
p2951
I1
sS'bride'
p2952
I3
sS'alluding'
p2953
I1
sS'store'
p2954
I1
sS'toward'
p2955
I4
sS'deciding'
p2956
I1
sS'Depend'
p2957
I1
sS'God'
p2958
I4
sS'affirmative'
p2959
I2
sS'substantial'
p2960
I2
sS'sentences'
p2961
I1
sS'lie'
p2962
I1
sS'suddenness'
p2963
I1
sS'flaming'
p2964
I1
sS'officers'
p2965
I30
sS'labour'
p2966
I1
sS'useless'
p2967
I6
sS'comprehended'
p2968
I3
sS'decorums'
p2969
I1
sS"'had"
p2970
I1
sS'towards'
p2971
I66
sS'Chief'
p2972
I1
sS'hired'
p2973
I1
sS'comparisons'
p2974
I1
sS'The'
p2975
I284
sS'approved'
p2976
I3
sS'performances'
p2977
I1
sS'clear'
p2978
I8
sS'popularity'
p2979
I1
sS'unreasonable'
p2980
I7
sS'unreasonably'
p2981
I1
sS'latest'
p2982
I1
sS'perseverance'
p2983
I3
sS'heavens'
p2984
I1
sS'distressing'
p2985
I6
sS'northern'
p2986
I3
sS'stubbornness'
p2987
I1
sS'unwillingly'
p2988
I4
sS'French'
p2989
I1
sS'pretty'
p2990
I24
sS'hardened'
p2991
I1
sS'circle'
p2992
I7
sS'ball-room'
p2993
I2
sS'meanwhile'
p2994
I5
sS'trees'
p2995
I5
sS'feels'
p2996
I4
sS'grew'
p2997
I6
sS'pretending'
p2998
I3
sS'during'
p2999
I25
sS'exhibiting'
p3000
I1
sS'sacrificed'
p3001
I1
sS'lament'
p3002
I3
sS'adhering'
p3003
I1
sS'alteration'
p3004
I8
sS'vestibule'
p3005
I5
sS'superintends'
p3006
I1
sS'recommendations'
p3007
I1
sS'courteous'
p3008
I1
sS'throwing'
p3009
I2
sS'BROTHER'
p3010
I1
sS'portrait'
p3011
I1
sS'Neither'
p3012
I5
sS'probable'
p3013
I12
sS'horrid'
p3014
I3
sS'pictures'
p3015
I1
sS'firmest'
p3016
I2
sS'Park'
p3017
I7
sS'won'
p3018
I4
sS'cottagers'
p3019
I1
sS'woe'
p3020
I1
sS'probably'
p3021
I23
sS'conditions'
p3022
I1
sS'pictured'
p3023
I1
sS'missing'
p3024
I1
sS'_That_'
p3025
I7
sS'availed'
p3026
I1
sS'distinguish'
p3027
I2
sS'fluently'
p3028
I1
sS'abruptly'
p3029
I2
sS'both'
p3030
I70
sS'secrets'
p3031
I1
sS'felicitations'
p3032
I1
sS'forgotten'
p3033
I12
sS'Hart'
p3034
I2
sS'letter-paper'
p3035
I1
sS'_near_'
p3036
I2
sS'Certainly'
p3037
I7
sS'half-finished'
p3038
I1
sS'ridiculing'
p3039
I1
sS'format'
p3040
I4
sS'Mr'
p3041
I20
sS'manners'
p3042
I45
sS'whatever'
p3043
I28
sS'unfolded'
p3044
I5
sS'likes'
p3045
I9
sS'complied'
p3046
I3
sS'Was'
p3047
I3
sS'unrestrained'
p3048
I1
sS'described'
p3049
I6
sS'stamp'
p3050
I1
sS'damp'
p3051
I1
sS'Most'
p3052
I4
sS'coarse'
p3053
I1
sS'collected'
p3054
I3
sS'instructing'
p3055
I1
sS'delights'
p3056
I2
sS'Women'
p3057
I1
sS'dialogue'
p3058
I2
sS'lived'
p3059
I14
sS'partly'
p3060
I2
sS"'_She_"
p3061
I1
sS'exempt'
p3062
I2
sS'else'
p3063
I43
sS'recalled'
p3064
I2
sS'compromised'
p3065
I1
sS'bidding'
p3066
I3
sS"gentleman's"
p3067
I2
sS'utmost'
p3068
I10
sS'look'
p3069
I56
sS'pace'
p3070
I1
sS'while'
p3071
I62
sS'smart'
p3072
I2
sS'animated'
p3073
I2
sS'guide'
p3074
I2
sS'//pglaf.org/fundraising'
p3075
I1
sS'pack'
p3076
I2
sS'Teasing'
p3077
I1
sS'overlooked'
p3078
I3
sS'ready'
p3079
I20
sS'Unfortunately'
p3080
I1
sS'clerical'
p3081
I1
sS'billiard-table'
p3082
I1
sS'belong'
p3083
I3
sS'discredit'
p3084
I2
sS'grand'
p3085
I2
sS'modification'
p3086
I1
sS'composition'
p3087
I1
sS'used'
p3088
I23
sS'temporary'
p3089
I1
sS'censure'
p3090
I5
sS'_prudently_'
p3091
I1
sS'user'
p3092
I3
sS'decency'
p3093
I2
sS'ceremonious'
p3094
I3
sS'elapsed'
p3095
I2
sS'older'
p3096
I2
sS'studies'
p3097
I2
sS'consistency'
p3098
I1
sS'Newby'
p3099
I1
sS'carpets'
p3100
I1
sS'weakest'
p3101
I1
sS'settlements'
p3102
I1
sS'overflows'
p3103
I1
sS'quarters'
p3104
I2
sS'roasted'
p3105
I1
sS'useful'
p3106
I6
sS'uselessly'
p3107
I1
sS'retirement'
p3108
I2
sS'$'
p3109
I2
sS'wounding'
p3110
I2
sS'exercising'
p3111
I2
sS'pronouncing'
p3112
I1
sS'questioned'
p3113
I3
sS'Hertfordshire'
p3114
I41
sS'remaining'
p3115
I9
sS'Darcy'
p3116
I407
sS'showing'
p3117
I4
sS'sharers'
p3118
I1
sS'game'
p3119
I7
sS'dearly'
p3120
I3
sS'damage'
p3121
I1
sS'overthrown'
p3122
I3
sS'defied'
p3123
I1
sS'inviting'
p3124
I3
sS'With'
p3125
I33
sS'signal'
p3126
I2
sS'provoking'
p3127
I3
sS'popular'
p3128
I1
sS'softness'
p3129
I1
sS'Find'
p3130
I1
sS'Little'
p3131
I2
sS'parade'
p3132
I2
sS'creation'
p3133
I1
sS'some'
p3134
I202
sS'urgent'
p3135
I3
sS'lips'
p3136
I9
sS'experienced'
p3137
I4
sS'Choose'
p3138
I1
sS'kindest'
p3139
I1
sS'savage'
p3140
I1
sS'nonproprietary'
p3141
I1
sS'describing'
p3142
I2
sS'exceeding'
p3143
I1
sS'conditionally'
p3144
I1
sS'Gutenberg'
p3145
I27
sS'forgets'
p3146
I1
sS'folios'
p3147
I1
sS'negatived'
p3148
I1
sS'measures'
p3149
I3
sS'run'
p3150
I11
sS'anecdotes'
p3151
I1
sS'hypocritical'
p3152
I2
sS'processing'
p3153
I1
sS'undergone'
p3154
I2
sS'stem'
p3155
I1
sS'step'
p3156
I16
sS'nerves'
p3157
I4
sS'abroad'
p3158
I4
sS'shine'
p3159
I1
sS'entailed'
p3160
I6
sS'Catherine'
p3161
I124
sS'silence'
p3162
I34
sS'seeing'
p3163
I60
sS'within'
p3164
I36
sS'nonsense'
p3165
I6
sS'Unhappy'
p3166
I1
sS'ensue'
p3167
I1
sS'Their'
p3168
I33
sS'conscientious'
p3169
I1
sS'computer'
p3170
I2
sS'imaginations'
p3171
I1
sS'placing'
p3172
I3
sS'Kitty'
p3173
I71
sS'cherished'
p3174
I4
sS'Royalty'
p3175
I2
sS'himself'
p3176
I127
sS'Michaelmas'
p3177
I2
sS'healthful'
p3178
I1
sS'frost'
p3179
I1
sS'properly'
p3180
I8
sS'alive'
p3181
I2
sS'branch'
p3182
I1
sS'reel'
p3183
I2
sS'dull'
p3184
I4
sS'ceremonies'
p3185
I1
sS'Irish'
p3186
I1
sS'lowness'
p3187
I1
sS'stumbling'
p3188
I1
sS'Clement'
p3189
I1
sS'commiseration'
p3190
I1
sS'accustomed'
p3191
I2
sS'similar'
p3192
I5
sS'curricle'
p3193
I2
sS'ordered'
p3194
I8
sS'abruptness'
p3195
I2
sS'mindful'
p3196
I1
sS'conciliating'
p3197
I1
sS'To'
p3198
I53
sS'surmise'
p3199
I2
sS'objection'
p3200
I15
sS'fears'
p3201
I9
sS'application'
p3202
I12
sS'nay'
p3203
I5
sS'smiles'
p3204
I9
sS'draw'
p3205
I6
sS'AK'
p3206
I1
sS'visits'
p3207
I5
sS'Exceedingly'
p3208
I1
sS'rested'
p3209
I1
sS'smiled'
p3210
I18
sS'restrained'
p3211
I1
sS'practically'
p3212
I1
sS'Ah'
p3213
I4
sS'required'
p3214
I11
sS'resolving'
p3215
I7
sS'An'
p3216
I8
sS'As'
p3217
I57
sS'neighbouring'
p3218
I2
sS'At'
p3219
I44
sS'bribe'
p3220
I1
sS'ignorant'
p3221
I15
sS'dismission'
p3222
I1
sS'rencontre'
p3223
I1
sS'cheerful'
p3224
I7
sS'sixpence'
p3225
I1
sS'go'
p3226
I102
sS'Painful'
p3227
I1
sS'arrogance'
p3228
I1
sS'Words'
p3229
I1
sS'Not'
p3230
I29
sS'Now'
p3231
I12
sS'friendly'
p3232
I7
sS'Nor'
p3233
I7
sS'prudence'
p3234
I4
sS'Mrs.'
p3235
I341
sS'wave'
p3236
I1
sS"Elizabeth's"
p3237
I3
sS'felicity'
p3238
I18
sS'telling'
p3239
I7
sS'yourselves'
p3240
I2
sS'recollected'
p3241
I13
sS'Charlotte'
p3242
I82
sS'positions'
p3243
I1
sS'compassionate'
p3244
I2
sS'inspection'
p3245
I2
sS'_were_'
p3246
I2
sS'comforts'
p3247
I4
sS'waking'
p3248
I1
sS'Heaven'
p3249
I11
sS'ardent'
p3250
I1
sS'languor'
p3251
I1
sS'over-scrupulous'
p3252
I1
sS'plays'
p3253
I1
sS'paintings'
p3254
I1
sS'colonel'
p3255
I3
sS';'
p3256
I1538
sS'completion'
p3257
I1
sS'melancholy'
p3258
I5
sS'elect'
p3259
I1
sS'commercial'
p3260
I1
sS'following'
p3261
I26
sS'PARAGRAPH'
p3262
I1
sS'Green'
p3263
I2
sS'conceited'
p3264
I6
sS'_coming'
p3265
I1
sS'indolence'
p3266
I2
sS'convert'
p3267
I2
sS'copyright'
p3268
I12
sS'lieutenant'
p3269
I1
sS'withdrawing'
p3270
I1
sS'justice'
p3271
I15
sS'repel'
p3272
I1
sS'commendable'
p3273
I1
sS'examining'
p3274
I4
sS'foresee'
p3275
I1
sS'addresses'
p3276
I7
sS'danger'
p3277
I19
sS'win'
p3278
I1
sS'Assistance'
p3279
I1
sS'manage'
p3280
I3
sS'apprehensive'
p3281
I1
sS'assertion'
p3282
I3
sS'addressed'
p3283
I17
sS'wit'
p3284
I6
sS'stupider'
p3285
I1
sS'singing'
p3286
I3
sS'_there_'
p3287
I5
sS"Catherine's"
p3288
I2
sS'agreeably'
p3289
I3
sS'remains'
p3290
I5
sS'congratulated'
p3291
I2
sS'contentment'
p3292
I3
sS'agreeable'
p3293
I44
sS'_make_'
p3294
I2
sS'cheeks'
p3295
I4
sS'Reflection'
p3296
I1
sS'started'
p3297
I4
sS'becomes'
p3298
I4
sS'testified'
p3299
I2
sS'Wednesday'
p3300
I9
sS'charming'
p3301
I20
sS'inattentive'
p3302
I2
sS'appointed'
p3303
I1
sS'salad'
p3304
I1
sS'ride'
p3305
I3
sS'crossed'
p3306
I5
sS'servants'
p3307
I12
sS'vexatious'
p3308
I2
sS'meet'
p3309
I32
sS'dropt'
p3310
I2
sS'withdrew'
p3311
I5
sS'links'
p3312
I3
sS'admirer'
p3313
I3
sS'atone'
p3314
I2
sS'Mr.'
p3315
I764
sS'sought'
p3316
I5
sS'wonderful'
p3317
I3
sS'undeceive'
p3318
I1
sS'hesitate'
p3319
I3
sS'boasting'
p3320
I1
sS'defective'
p3321
I4
sS'picturesque'
p3322
I1
sS'poetry'
p3323
I2
sS'arrangement'
p3324
I8
sS'missent'
p3325
I2
sS'sentiments'
p3326
I10
sS'instinctively'
p3327
I2
sS're-use'
p3328
I2
sS'immoral'
p3329
I1
sS'fare'
p3330
I2
sS'farm'
p3331
I2
sS'British'
p3332
I1
sS'Mrs'
p3333
I2
sS'fatigue'
p3334
I4
sS'imparted'
p3335
I1
sS'Allow'
p3336
I3
sS'comprehends'
p3337
I1
sS"Metcalf's"
p3338
I1
sS'revered'
p3339
I1
sS'favourites'
p3340
I2
sS'Phillips'
p3341
I31
sS'including'
p3342
I9
sS'mentioned'
p3343
I28
sS'converting'
p3344
I1
sS'card-tables'
p3345
I3
sS'WITH'
p3346
I1
sS'exclusion'
p3347
I2
sS'thence'
p3348
I1
sS'shewed'
p3349
I1
sS'stout'
p3350
I2
sS'hands'
p3351
I7
sS'front'
p3352
I5
sS'masters'
p3353
I2
sS'laconic'
p3354
I1
sS'revolted'
p3355
I1
sS'magnitude'
p3356
I1
sS'mode'
p3357
I5
sS'pools'
p3358
I1
sS'Use'
p3359
I2
sS'shaking'
p3360
I2
sS'prevailing'
p3361
I2
sS'ankles'
p3362
I2
sS'attachments'
p3363
I1
sS'pursuits'
p3364
I1
sS'constitute'
p3365
I1
sS'exceeded'
p3366
I2
sS'separating'
p3367
I1
sS'special'
p3368
I2
sS'gallant'
p3369
I1
sS'secretly'
p3370
I3
sS'entertainment'
p3371
I6
sS'confess'
p3372
I16
sS'cause'
p3373
I21
sS"one's"
p3374
I1
sS'jilt'
p3375
I1
sS'humiliating'
p3376
I2
sS'undo'
p3377
I2
sS'attending'
p3378
I9
sS'completely'
p3379
I7
sS'intruder'
p3380
I1
sS'sneer'
p3381
I1
sS'untinctured'
p3382
I1
sS'fellow-travellers'
p3383
I1
sS'befriended'
p3384
I1
sS'determining'
p3385
I2
sS'route'
p3386
I3
sS'shoe-roses'
p3387
I1
sS'keep'
p3388
I27
sS'counterpart'
p3389
I1
sS'insensible'
p3390
I4
sS'timed'
p3391
I1
sS'mankind'
p3392
I1
sS'glories'
p3393
I1
sS'succeeds'
p3394
I1
sS'pitied'
p3395
I3
sS'possessing'
p3396
I1
sS'powerful'
p3397
I3
sS'forego'
p3398
I1
sS'indisposed'
p3399
I2
sS'seasonable'
p3400
I1
sS'gloried'
p3401
I1
sS'signify'
p3402
I3
sS'eminence'
p3403
I1
sS'precisely'
p3404
I1
sS'quality'
p3405
I2
sS'management'
p3406
I4
sS'bears'
p3407
I2
sS'data'
p3408
I1
sS'WORK'
p3409
I1
sS'relations'
p3410
I23
sS'attach'
p3411
I3
sS'attack'
p3412
I4
sS'Archbishop'
p3413
I1
sS'ankle'
p3414
I1
sS'perfectly'
p3415
I46
sS'fairest'
p3416
I1
sS'prone'
p3417
I2
sS'unsuspicious'
p3418
I1
sS'punish'
p3419
I3
sS'exactly'
p3420
I30
sS'apologise'
p3421
I5
sS'herself'
p3422
I227
sS'aught'
p3423
I1
sS'assents'
p3424
I1
sS'yawned'
p3425
I1
sS'beg'
p3426
I17
sS'bed'
p3427
I5
sS'claim'
p3428
I6
sS'providing'
p3429
I5
sS'insignificance'
p3430
I3
sS'distinguished'
p3431
I6
sS'exhibit'
p3432
I1
sS'Information'
p3433
I5
sS'enforced'
p3434
I1
sS'captivation'
p3435
I1
sS'thwarted'
p3436
I1
sS'Richard'
p3437
I1
sS'unchanged'
p3438
I1
sS'Other'
p3439
I2
sS'torment'
p3440
I1
sS'close'
p3441
I9
sS'need'
p3442
I20
sS'constrained'
p3443
I1
sS'assurances'
p3444
I8
sS'complacency'
p3445
I4
sS'sings'
p3446
I1
sS'pursued'
p3447
I2
sS'pianoforte'
p3448
I5
sS'able'
p3449
I54
sS'instance'
p3450
I7
sS'battled'
p3451
I1
sS'_little_'
p3452
I1
sS'adieu'
p3453
I3
sS'Well'
p3454
I36
sS'intentions'
p3455
I6
sS'connected'
p3456
I14
sS'but'
p3457
I688
sS'counterbalance'
p3458
I1
sS'tall'
p3459
I8
sS'mechanically'
p3460
I1
sS'awe'
p3461
I3
sS'gallery'
p3462
I4
sS'Exceed'
p3463
I1
sS'enumerating'
p3464
I5
sS'spleen'
p3465
I1
sS'penitent'
p3466
I1
sS'proceedings'
p3467
I1
sS'enjoyments'
p3468
I1
sS'impression'
p3469
I7
sS'reprehensible'
p3470
I3
sS'violation'
p3471
I2
sS'familiarity'
p3472
I2
sS'_your_'
p3473
I17
sS'soldiers'
p3474
I1
sS'obsequious'
p3475
I1
sS'Public'
p3476
I1
sS'shield'
p3477
I1
sS'partners'
p3478
I3
sS'envy'
p3479
I3
sS'based'
p3480
I2
sS'('
p3481
I38
sS'Forsters'
p3482
I1
sS'inherited'
p3483
I1
sS'attained'
p3484
I1
sS'employed'
p3485
I8
sS'WARRANTIES'
p3486
I2
sS'gratify'
p3487
I2
sS'doubting'
p3488
I2
sS'ill-humour'
p3489
I4
sS'recollecting'
p3490
I5
sS'commendation'
p3491
I8
sS'seizing'
p3492
I1
sS'On'
p3493
I35
sS'magistrate'
p3494
I1
sS'ascended'
p3495
I3
sS'Italian'
p3496
I1
sS'evident'
p3497
I18
sS'shy'
p3498
I2
sS'oppressively'
p3499
I1
sS'coaxed'
p3500
I1
sS'sha'
p3501
I3
sS'she'
p3502
I1371
sS'contain'
p3503
I8
sS'Impossible'
p3504
I2
sS'flogged'
p3505
I1
sS'unfrequently'
p3506
I1
sS'widow'
p3507
I3
sS'Generous'
p3508
I1
sS'burying'
p3509
I1
sS'Send'
p3510
I1
sS'legacy'
p3511
I1
sS'desperate'
p3512
I3
sS'operated'
p3513
I1
sS'luckiest'
p3514
I1
sS'Good'
p3515
I12
sS'intending'
p3516
I7
sS'tend'
p3517
I1
sS'written'
p3518
I22
sS'surmises'
p3519
I1
sS'horrible'
p3520
I1
sS'tens'
p3521
I1
sS'neither'
p3522
I33
sS'tent'
p3523
I1
sS'attention'
p3524
I68
sS'sorely'
p3525
I1
sS'importance'
p3526
I22
sS'hurrying'
p3527
I3
sS'interfere'
p3528
I1
sS'spared'
p3529
I8
sS'merry'
p3530
I3
sS'precious'
p3531
I2
sS'problem'
p3532
I1
sS'haughty'
p3533
I3
sS'undetermined'
p3534
I1
sS'limits'
p3535
I1
sS'minds'
p3536
I4
sS'admit'
p3537
I6
sS'Woods'
p3538
I1
sS'estimation'
p3539
I5
sS'journey'
p3540
I21
sS'cordial'
p3541
I3
sS'habitual'
p3542
I1
sS'agreed'
p3543
I13
sS'quit'
p3544
I10
sS'addition'
p3545
I9
sS'discrimination'
p3546
I1
sS'thanked'
p3547
I7
sS'overthrowing'
p3548
I1
sS'slowly'
p3549
I4
sS'treat'
p3550
I5
sS'shoulders'
p3551
I1
sS'senses'
p3552
I4
sS'retrospective'
p3553
I1
sS'piquet'
p3554
I1
sS'consequential'
p3555
I1
sS'shameless'
p3556
I1
sS'And'
p3557
I154
sS'intimidate'
p3558
I1
sS'owns'
p3559
I3
sS'Any'
p3560
I2
sS'examined'
p3561
I4
sS'You'
p3562
I210
sS'began'
p3563
I59
sS'captivated'
p3564
I1
sS'strange'
p3565
I10
sS'speaker'
p3566
I1
sS'incumbent'
p3567
I4
sS'Oxford'
p3568
I1
sS'party'
p3569
I58
sS'http'
p3570
I8
sS'eccentric'
p3571
I1
sS'appearances'
p3572
I1
sS'effect'
p3573
I18
sS'colouring'
p3574
I3
sS'discouraged'
p3575
I2
sS'frequently'
p3576
I23
sS'poultry'
p3577
I3
sS'scarcely'
p3578
I43
sS'reflection'
p3579
I9
sS'obstacles'
p3580
I2
sS'well'
p3581
I178
sS'ANY'
p3582
I3
sS'amends'
p3583
I5
sS'Have'
p3584
I11
sS'47'
p3585
I1
sS'BE'
p3586
I1
sS'taller'
p3587
I1
sS'ill-tempered'
p3588
I1
sS'insinuating'
p3589
I1
sS'accurate'
p3590
I1
sS'liked'
p3591
I27
sS'mistaken'
p3592
I21
sS'dose'
p3593
I1
sS'sources'
p3594
I3
sS'Sunday'
p3595
I9
sS'mistakes'
p3596
I2
sS'Rosings'
p3597
I49
sS'advertised'
p3598
I1
sS'laurel'
p3599
I1
sS'skill'
p3600
I3
sS'detain'
p3601
I2
sS'Be'
p3602
I4
sS'Hursts'
p3603
I1
sS'chaperon'
p3604
I1
sS'Amazed'
p3605
I1
sS'Despite'
p3606
I1
sS'ought'
p3607
I44
sS'warrant'
p3608
I1
sS'indignation'
p3609
I8
sS'clouded'
p3610
I1
sS'EBook'
p3611
I3
sS'ample'
p3612
I2
sS'acceding'
p3613
I1
sS'intimates'
p3614
I1
sS'immediately'
p3615
I60
sS'amply'
p3616
I2
sS'loss'
p3617
I17
sS'glazing'
p3618
I1
sS'England'
p3619
I5
sS'B.'
p3620
I2
sS'lost'
p3621
I29
sS'ring'
p3622
I4
sS'sized'
p3623
I1
sS'payments'
p3624
I3
sS'lose'
p3625
I11
sS'page'
p3626
I4
sS'therein'
p3627
I1
sS'shed'
p3628
I1
sS'belonged'
p3629
I3
sS'library'
p3630
I24
sS"'you"
p3631
I1
sS'shew'
p3632
I1
sS'redress'
p3633
I1
sS'home'
p3634
I66
sS'liking'
p3635
I2
sS'objected'
p3636
I1
sS'However'
p3637
I7
sS'War'
p3638
I1
sS'e-mail'
p3639
I1
sS'?'
p3640
I462
sS'inaccurate'
p3641
I1
sS'reaching'
p3642
I4
sS'Updated'
p3643
I1
sS'imperfectly'
p3644
I1
sS'prohibited'
p3645
I1
sS'misrepresentation'
p3646
I1
sS'refuge'
p3647
I1
sS'freedom'
p3648
I4
sS'recognized'
p3649
I1
sS'compatible'
p3650
I2
sS'tongue'
p3651
I3
sS'_yours_'
p3652
I2
sS'persuaded'
p3653
I24
sS'equally'
p3654
I20
sS'previously'
p3655
I2
sS'vulgarity'
p3656
I1
sS'Absence'
p3657
I1
sS'Internal'
p3658
I1
sS'additions'
p3659
I2
sS'endeavours'
p3660
I7
sS'doubtless'
p3661
I2
sS'rejoice'
p3662
I7
sS'impatience'
p3663
I10
sS'lagged'
p3664
I2
sS'noticed'
p3665
I8
sS'crushing'
p3666
I1
sS'north'
p3667
I2
sS'blaming'
p3668
I3
sS'IMPLIED'
p3669
I1
sS'gain'
p3670
I2
sS'ear'
p3671
I1
sS'minutely'
p3672
I3
sS'he'
p3673
I1093
sS'grieve'
p3674
I3
sS'sufferer'
p3675
I1
sS'godson'
p3676
I2
sS'cruel'
p3677
I4
sS'heiress'
p3678
I1
sS'piece'
p3679
I5
sS'display'
p3680
I5
sS'universal'
p3681
I3
sS'Lake'
p3682
I1
sS'resented'
p3683
I3
sS'education'
p3684
I11
sS'unsocial'
p3685
I1
sS'superlatively'
p3686
I1
sS'half-opened'
p3687
I1
sS'Shall'
p3688
I4
sS'Never'
p3689
I6
sS'offensive'
p3690
I2
sS'Besides'
p3691
I2
sS'disposing'
p3692
I1
sS'stay'
p3693
I36
sS'deter'
p3694
I1
sS'friends'
p3695
I55
sS'Neglect'
p3696
I1
sS'EBOOK'
p3697
I2
sS'portion'
p3698
I3
sS'Spanish'
p3699
I1
sS'determination'
p3700
I3
sS'commencement'
p3701
I2
sS'secondly'
p3702
I3
sS'pardon'
p3703
I13
sS'similarity'
p3704
I2
sS'_His_'
p3705
I1
sS'expence'
p3706
I1
sS'straws'
p3707
I1
sS'consists'
p3708
I1
sS'bestowing'
p3709
I1
sS'whose'
p3710
I59
sS'unfeeling'
p3711
I2
sS'Liverpool'
p3712
I1
sS'calculate'
p3713
I2
sS'sweetest'
p3714
I2
sS'boundless'
p3715
I1
sS'presents'
p3716
I3
sS'teaching'
p3717
I2
sS'sorry'
p3718
I34
sS'nourishes'
p3719
I1
sS'updated'
p3720
I1
sS'_me_'
p3721
I17
sS'rescue'
p3722
I1
sS'void'
p3723
I2
sS"'Lady"
p3724
I1
sS'agitations'
p3725
I1
sS'govern'
p3726
I1
sS'affect'
p3727
I3
sS'vast'
p3728
I2
sS'convenience'
p3729
I3
sS'enhance'
p3730
I1
sS'graces'
p3731
I1
sS'clothes'
p3732
I13
sS'favoured'
p3733
I1
sS'farmhouse'
p3734
I1
sS'card-table'
p3735
I4
sS'force'
p3736
I8
sS'self-gratulation'
p3737
I2
sS'lustre'
p3738
I1
sS'me.'
p3739
I1
sS'mansion'
p3740
I2
sS'likely'
p3741
I38
sS'worthlessness'
p3742
I1
sS'even'
p3743
I81
sS'desirous'
p3744
I7
sS'saved'
p3745
I3
sS'hatefully'
p3746
I1
sS'spokesman'
p3747
I1
sS'Put'
p3748
I1
sS'new'
p3749
I26
sS'net'
p3750
I1
sS'ever'
p3751
I129
sS'deemed'
p3752
I1
sS'repugnance'
p3753
I1
sS'men'
p3754
I33
sS'drew'
p3755
I19
sS'met'
p3756
I40
sS'second-hand'
p3757
I1
sS'active'
p3758
I6
sS'unexampled'
p3759
I1
sS'credit'
p3760
I28
sS'monosyllable'
p3761
I1
sS'permit'
p3762
I1
sS'suitable'
p3763
I3
sS'reckoned'
p3764
I1
sS'St.'
p3765
I6
sS'county'
p3766
I6
sS"niece's"
p3767
I1
sS'moral'
p3768
I3
sS'guests'
p3769
I1
sS'overhear'
p3770
I1
sS'army'
p3771
I3
sS'call'
p3772
I28
sS'calm'
p3773
I5
sS'recommend'
p3774
I12
sS'survive'
p3775
I3
sS'Removed'
p3776
I1
sS'tell'
p3777
I66
sS'expose'
p3778
I7
sS'warn'
p3779
I4
sS'warm'
p3780
I6
sS'ward'
p3781
I1
sS'room'
p3782
I112
sS'gossiping'
p3783
I1
sS'defer'
p3784
I3
sS'unmarked'
p3785
I1
sS'fresher'
p3786
I1
sS'give'
p3787
I124
sS'assent'
p3788
I1
sS'unpretending'
p3789
I1
sS'AGREEMENT'
p3790
I1
sS'involve'
p3791
I2
sS'degenerate'
p3792
I1
sS'masterly'
p3793
I1
sS'colds'
p3794
I1
sS'faults'
p3795
I4
sS'amazing'
p3796
I2
sS'answer'
p3797
I65
sS'desponding'
p3798
I1
sS'faulty'
p3799
I3
sS'Lucas'
p3800
I70
sS'reconciled'
p3801
I2
sS'indignity'
p3802
I2
sS'vicious'
p3803
I1
sS'curiosity'
p3804
I23
sS'_they_'
p3805
I3
sS'purchase'
p3806
I6
sS'All'
p3807
I16
sS'attempt'
p3808
I21
sS'third'
p3809
I7
sS'_wished_'
p3810
I1
sS'maintain'
p3811
I1
sS'waited'
p3812
I7
sS'foresaw'
p3813
I1
sS'befall'
p3814
I2
sS'wickedness'
p3815
I2
sS'before'
p3816
I225
sS'imperturbably'
p3817
I1
sS'personal'
p3818
I2
sS'frisks'
p3819
I1
sS','
p3820
I9279
sS'better'
p3821
I92
sS'differently'
p3822
I7
sS'persist'
p3823
I2
sS'subsisted'
p3824
I2
sS'weeks'
p3825
I18
sS'overcome'
p3826
I10
sS'donors'
p3827
I1
sS'breakfast-room'
p3828
I4
sS'weakness'
p3829
I5
sS'esteemed'
p3830
I7
sS'indulge'
p3831
I5
sS'cautiousness'
p3832
I1
sS'meat'
p3833
I4
sS'discomposure'
p3834
I3
sS'Indeed'
p3835
I19
sS'sleepless'
p3836
I1
sS'arrested'
p3837
I2
sS'mistrust'
p3838
I1
sS'went'
p3839
I67
sS'Hate'
p3840
I1
sS'side'
p3841
I53
sS'mean'
p3842
I34
sS'interruption'
p3843
I10
sS'calmly'
p3844
I1
sS'successively'
p3845
I1
sS'principles'
p3846
I1
sS'taught'
p3847
I8
sS'forgot'
p3848
I5
sS'conjectures'
p3849
I3
sS'hushed'
p3850
I1
sS'content'
p3851
I1
sS'undeserved'
p3852
I1
sS'easiness'
p3853
I3
sS'Jenkinson'
p3854
I9
sS'surprise'
p3855
I36
sS'Whilst'
p3856
I1
sS'turning'
p3857
I13
sS'resume'
p3858
I1
sS'half-a-mile'
p3859
I1
sS'revenge'
p3860
I2
sS'bestow'
p3861
I7
sS'struggle'
p3862
I1
sS'mistress'
p3863
I9
sS'Implacable'
p3864
I1
sS'professions'
p3865
I6
sS'messages'
p3866
I1
sS'Defect'
p3867
I1
sS'steward'
p3868
I5
sS'arrived'
p3869
I15
sS'loud'
p3870
I2
sS'enraged'
p3871
I1
sS'rapturously'
p3872
I1
sS'features'
p3873
I8
sS'comforted'
p3874
I1
sS'peculiarity'
p3875
I1
sS'rashness'
p3876
I1
sS'dwelt'
p3877
I5
sS'discompose'
p3878
I1
sS'acquaint'
p3879
I2
sS'84116'
p3880
I1
sS'girls'
p3881
I44
sS'witnessing'
p3882
I1
sS'dwell'
p3883
I2
sS'gentlemanlike'
p3884
I8
sS'lower'
p3885
I4
sS'somewhat'
p3886
I8
sS'requisite'
p3887
I1
sS'peculiar'
p3888
I5
sS'symptom'
p3889
I4
sS'begins'
p3890
I4
sS'distance'
p3891
I16
sS'congratulatory'
p3892
I1
sS'anxiety'
p3893
I18
sS'affront'
p3894
I4
sS'equalled'
p3895
I1
sS'enabled'
p3896
I2
sS'bitterness'
p3897
I5
sS'preparation'
p3898
I1
sS'matter'
p3899
I29
sS'street'
p3900
I9
sS'silly'
p3901
I12
sS'deserving'
p3902
I2
sS'Miller'
p3903
I1
sS'threadbare'
p3904
I2
sS'blamelessness'
p3905
I1
sS'sees'
p3906
I6
sS'rattle'
p3907
I2
sS'Haggerston'
p3908
I2
sS'modern'
p3909
I2
sS'mind'
p3910
I57
sS'mine'
p3911
I11
sS'elevating'
p3912
I1
sS'bewailed'
p3913
I1
sS'seen'
p3914
I76
sS'seem'
p3915
I16
sS'seek'
p3916
I8
sS'tells'
p3917
I1
sS'emptiness'
p3918
I1
sS'communicative'
p3919
I1
sS'niece'
p3920
I20
sS'impurities'
p3921
I1
sS'_nephew_'
p3922
I1
sS'inconsistency'
p3923
I2
sS'assisting'
p3924
I2
sS'observation'
p3925
I14
sS'alarm'
p3926
I14
sS'Single'
p3927
I1
sS'points'
p3928
I4
sS'principle'
p3929
I5
sS'breathed'
p3930
I1
sS'annoyed'
p3931
I1
sS'rapture'
p3932
I2
sS'visitor'
p3933
I11
sS'brilliancy'
p3934
I2
sS'uneasiness'
p3935
I7
sS'supplied'
p3936
I2
sS'stepping'
p3937
I1
sS'acquit'
p3938
I2
sS'cleanse'
p3939
I1
sS'explain'
p3940
I6
sS'debts'
p3941
I10
sS'folded'
p3942
I1
sS'judged'
p3943
I3
sS'Others'
p3944
I1
sS'rejoicing'
p3945
I4
sS'stop'
p3946
I3
sS'perceive'
p3947
I7
sS'integrity'
p3948
I3
sS'meditate'
p3949
I2
sS'prepossessed'
p3950
I1
sS'comply'
p3951
I9
sS'earl'
p3952
I2
sS'fields'
p3953
I1
sS'bad'
p3954
I15
sS'troop'
p3955
I1
sS'Melan'
p3956
I1
sS'market-town'
p3957
I1
sS'unworthy'
p3958
I4
sS'HAVE'
p3959
I1
sS'reference'
p3960
I2
sS'imitate'
p3961
I1
sS'alterations'
p3962
I1
sS'blameless'
p3963
I1
sS'decided'
p3964
I11
sS'Pursuing'
p3965
I1
sS'interruptions'
p3966
I1
sS'half-an-hour'
p3967
I7
sS'subject'
p3968
I85
sS'said'
p3969
I401
sS'smirks'
p3970
I1
sS'artificial'
p3971
I1
sS'half-a-dozen'
p3972
I1
sS'crayons'
p3973
I1
sS'wears'
p3974
I1
sS'vows'
p3975
I1
sS'ignorance'
p3976
I7
sS'weary'
p3977
I2
sS'cousin'
p3978
I49
sS'Persuaded'
p3979
I1
sS'Yours'
p3980
I9
sS'suggested'
p3981
I5
sS'prudential'
p3982
I1
sS'estimable'
p3983
I2
sS'against'
p3984
I52
sS'distinction'
p3985
I5
sS'appeared'
p3986
I31
sS'height'
p3987
I3
sS'unallied'
p3988
I1
sS'springs'
p3989
I1
sS'apprehended'
p3990
I1
sS'proceeded'
p3991
I10
sS'_to_'
p3992
I1
sS'three'
p3993
I56
sS'particulars'
p3994
I20
sS'commission'
p3995
I7
sS'interest'
p3996
I25
sS'entered'
p3997
I36
sS'lovely'
p3998
I3
sS'threw'
p3999
I9
sS'www.gutenberg.org'
p4000
I3
sS'efficacy'
p4001
I1
sS'suppress'
p4002
I2
sS'inattention'
p4003
I2
sS'locations'
p4004
I2
sS'strictures'
p4005
I1
sS'regretted'
p4006
I1
sS'exception'
p4007
I1
sS'sly'
p4008
I3
sS'Into'
p4009
I1
sS'originate'
p4010
I1
sS'tastes'
p4011
I1
sS'ugly'
p4012
I2
sS'near'
p4013
I36
sS'suppose'
p4014
I48
sS'Tuesday'
p4015
I12
sS'guardianship'
p4016
I3
sS'seven'
p4017
I1
sS'changed'
p4018
I8
sS'overspreading'
p4019
I1
sS'is'
p4020
I861
sS'it'
p4021
I1301
sS'shame'
p4022
I10
sS'splendour'
p4023
I1
sS'in'
p4024
I1836
sS'Nay'
p4025
I5
sS'if'
p4026
I265
sS'grown'
p4027
I3
sS'Epsom'
p4028
I3
sS'parish'
p4029
I9
sS'make'
p4030
I166
sS'entreating'
p4031
I1
sS'self-consequence'
p4032
I2
sS'unfortunate'
p4033
I6
sS'characterise'
p4034
I1
sS'entitled'
p4035
I4
sS'meets'
p4036
I2
sS'declaring'
p4037
I1
sS'delight'
p4038
I25
sS'Morris'
p4039
I1
sS'supposing'
p4040
I14
sS'jealous'
p4041
I3
sS'bequest'
p4042
I1
sS'thoughts'
p4043
I25
sS'warded'
p4044
I1
sS'postponed'
p4045
I1
sS'changes'
p4046
I1
sS'failing'
p4047
I2
sS'inherit'
p4048
I1
sS'unconcerned'
p4049
I2
sS'approbation'
p4050
I7
sS'resuming'
p4051
I1
sS'qualities'
p4052
I6
sS'claims'
p4053
I6
sS'801'
p4054
I1
sS'_did_'
p4055
I6
sS'yours'
p4056
I12
sS'left'
p4057
I65
sS'etiquette'
p4058
I2
sS'consciousness'
p4059
I2
sS'sentence'
p4060
I14
sS'warmest'
p4061
I2
sS'wiser'
p4062
I1
sS'Wholly'
p4063
I1
sS'verses'
p4064
I1
sS'identify'
p4065
I1
sS'personages'
p4066
I1
sS'human'
p4067
I5
sS'facts'
p4068
I1
sS'yes'
p4069
I19
sS'yet'
p4070
I62
sS'infinitely'
p4071
I4
sS'pecuniary'
p4072
I2
sS'regarded'
p4073
I3
sS'character'
p4074
I64
sS'affinity'
p4075
I2
sS'save'
p4076
I3
sS'trimming'
p4077
I1
sS'boasted'
p4078
I2
sS'involuntary'
p4079
I1
sS'whichever'
p4080
I2
sS'affability'
p4081
I4
sS'vanity'
p4082
I17
sS'coarseness'
p4083
I2
sS'dignity'
p4084
I5
sS'cassino'
p4085
I1
sS'performing'
p4086
I3
sS'unnecessary'
p4087
I4
sS'Are'
p4088
I16
sS'flattered'
p4089
I7
sS'deal'
p4090
I34
sS'somehow'
p4091
I2
sS'dead'
p4092
I5
sS'fingering'
p4093
I1
sS'paragraphs'
p4094
I3
sS'dear'
p4095
I144
sS'amiable'
p4096
I36
sS'collect'
p4097
I2
sS'Nobody'
p4098
I2
sS'stateliness'
p4099
I1
sS'bold'
p4100
I2
sS'squeamish'
p4101
I1
sS'conceal'
p4102
I12
sS'leave-taking'
p4103
I1
sS'essential'
p4104
I2
sS'afternoon'
p4105
I3
sS'formerly'
p4106
I7
sS'sketch'
p4107
I2
sS'intellectual'
p4108
I2
sS'negative'
p4109
I3
sS'down'
p4110
I73
sS'complaints'
p4111
I4
sS'lieu'
p4112
I4
sS'intermarriage'
p4113
I1
sS'frightened'
p4114
I7
sS'Unless'
p4115
I3
sS'flying'
p4116
I2
sS'jealousy'
p4117
I4
sS'_Boulanger_'
p4118
I1
sS'creditable'
p4119
I2
sS'influencing'
p4120
I1
sS'starve'
p4121
I1
sS'form'
p4122
I17
sS'January'
p4123
I2
sS'landing'
p4124
I1
sS'failure'
p4125
I1
sS'patched-up'
p4126
I1
sS'minuteness'
p4127
I1
sS'assented'
p4128
I2
sS'continuance'
p4129
I3
sS'pretension'
p4130
I1
sS'prevents'
p4131
I1
sS'attached'
p4132
I12
sS'bounds'
p4133
I1
sS'unvarying'
p4134
I1
sS'untitled'
p4135
I1
sS'Bakewell'
p4136
I1
sS'temper'
p4137
I24
sS'separated'
p4138
I3
sS'exerting'
p4139
I1
sS'PROVIDED'
p4140
I1
sS'aunts'
p4141
I1
sS'agreeing'
p4142
I3
sS'excel'
p4143
I2
sS'handed'
p4144
I3
sS'answerable'
p4145
I2
sS'venison'
p4146
I1
sS'self-complacency'
p4147
I1
sS'delivered'
p4148
I4
sS'felt'
p4149
I99
sS'unwell'
p4150
I2
sS'trepidation'
p4151
I1
sS'alleviated'
p4152
I1
sS'died'
p4153
I3
sS'happening'
p4154
I2
sS'apology'
p4155
I8
sS'assume'
p4156
I3
sS'blushing'
p4157
I1
sS'daily'
p4158
I3
sS"Gutenberg-tm's"
p4159
I1
sS'teeth'
p4160
I1
sS'parcels'
p4161
I2
sS'restored'
p4162
I2
sS'REMEDIES'
p4163
I1
sS'managed'
p4164
I1
sS'relieve'
p4165
I2
sS'eldest'
p4166
I19
sS'invent'
p4167
I1
sS'abatement'
p4168
I1
sS'mile'
p4169
I5
sS'abundant'
p4170
I1
sS'anticipation'
p4171
I1
sS'depend'
p4172
I22
sS'deceitful'
p4173
I2
sS'father'
p4174
I132
sS'bordered'
p4175
I2
sS'answered'
p4176
I34
sS'finally'
p4177
I7
sS'praised'
p4178
I2
sS'marks'
p4179
I2
sS'suffered'
p4180
I8
sS'fancied'
p4181
I7
sS'shoot'
p4182
I3
sS'advised'
p4183
I3
sS'Where'
p4184
I5
sS'banished'
p4185
I3
sS'excellency'
p4186
I1
sS'die'
p4187
I4
sS'proposals'
p4188
I9
sS'accidentally'
p4189
I3
sS'excellence'
p4190
I2
sS'gentlewoman'
p4191
I1
sS'round'
p4192
I17
sS'talked'
p4193
I38
sS'fearing'
p4194
I3
sS'talker'
p4195
I1
sS'eating'
p4196
I2
sS'adds'
p4197
I3
sS'favour'
p4198
I22
sS'suspect'
p4199
I4
sS'filled'
p4200
I1
sS'scampering'
p4201
I1
sS'guardian'
p4202
I1
sS'clerk'
p4203
I1
sS'involuntarily'
p4204
I2
sS'We'
p4205
I60
sS'corporation'
p4206
I1
sS'detest'
p4207
I3
sS'Times'
p4208
I1
sS'_will_'
p4209
I7
sS'wait'
p4210
I17
sS'boy'
p4211
I3
sS'environs'
p4212
I1
sS'Supposing'
p4213
I1
sS'shift'
p4214
I1
sS'reappear'
p4215
I1
sS'bow'
p4216
I11
sS'suggestion'
p4217
I1
sS'unpleasing'
p4218
I1
sS'shook'
p4219
I11
sS'hither'
p4220
I3
sS'insolent'
p4221
I4
sS'merely'
p4222
I32
sS'When'
p4223
I80
sS'histories'
p4224
I1
sS'contradictions'
p4225
I1
sS'surmount'
p4226
I1
sS'hotels'
p4227
I1
sS'everybody'
p4228
I34
sS'liberal-minded'
p4229
I1
sS'wealth'
p4230
I3
sS'sake'
p4231
I23
sS'visit'
p4232
I53
sS'complaisant'
p4233
I1
sS'going'
p4234
I57
sS'Allowing'
p4235
I2
sS"'Lydia"
p4236
I1
sS'lessened'
p4237
I1
sS'sharing'
p4238
I3
sS'condescension'
p4239
I7
sS"'Lately"
p4240
I1
sS'acceptable'
p4241
I6
sS'cautious'
p4242
I4
sS'effort'
p4243
I7
sS'blinds'
p4244
I1
sS'mingled'
p4245
I1
sS'avoiding'
p4246
I2
sS'_as'
p4247
I1
sS'soul'
p4248
I2
sS'Bath'
p4249
I1
sS'soup'
p4250
I2
sS'sour'
p4251
I1
sS'growing'
p4252
I3
sS'making'
p4253
I34
sS'repressing'
p4254
I1
sS'arrive'
p4255
I2
sS'Archive'
p4256
I13
sS'_any_'
p4257
I1
sS'Conjectures'
p4258
I1
sS'nearest'
p4259
I5
sS"servant's"
p4260
I1
sS'predict'
p4261
I1
sS'596-1887'
p4262
I1
sS'confused'
p4263
I4
sS'agent'
p4264
I1
sS'pointedly'
p4265
I1
sS'muslins'
p4266
I1
sS'dishonourable'
p4267
I1
sS'strikingly'
p4268
I1
sS'till'
p4269
I87
sS'pure'
p4270
I2
sS'persuasion'
p4271
I7
sS'staying'
p4272
I10
sS'may'
p4273
I199
sS'misrepresented'
p4274
I2
sS'designed'
p4275
I5
sS'destructive'
p4276
I1
sS'grow'
p4277
I4
sS'man'
p4278
I150
sS'relinquish'
p4279
I1
sS'omen'
p4280
I1
sS'provide'
p4281
I11
sS'deceive'
p4282
I4
sS'chimney-piece'
p4283
I1
sS'talk'
p4284
I32
sS'nearly'
p4285
I8
sS'Mississippi'
p4286
I1
sS'INCIDENTAL'
p4287
I1
sS'shoes'
p4288
I1
sS'disclosure'
p4289
I1
sS'gradual'
p4290
I1
sS'pointed'
p4291
I5
sS'wishing'
p4292
I14
sS'entity'
p4293
I3
sS'stability'
p4294
I1
sS'shake'
p4295
I2
sS'argued'
p4296
I1
sS'group'
p4297
I3
sS'thank'
p4298
I13
sS"months'"
p4299
I1
sS'interesting'
p4300
I14
sS'EXCEPT'
p4301
I1
sS'maid'
p4302
I3
sS'policy'
p4303
I1
sS'ours'
p4304
I2
sS'main'
p4305
I1
sS'truest'
p4306
I1
sS'recommenced'
p4307
I1
sS'views'
p4308
I11
sS'impulses'
p4309
I1
sS'christening'
p4310
I1
sS'sarcastic'
p4311
I1
sS'She'
p4312
I324
sS'ACTUAL'
p4313
I1
sS'killed'
p4314
I4
sS'possess'
p4315
I5
sS'feverish'
p4316
I2
sS'careless'
p4317
I2
sS'_him_'
p4318
I11
sS'scolded'
p4319
I1
sS'vogue'
p4320
I1
sS'half-expectation'
p4321
I1
sS'richly'
p4322
I1
sS'preaching'
p4323
I3
sS'aloof'
p4324
I2
sS'girl'
p4325
I38
sS'requesting'
p4326
I2
sS'living'
p4327
I24
sS'interference'
p4328
I13
sS'stupid'
p4329
I3
sS'correct'
p4330
I2
sS'assurance'
p4331
I15
sS'Commerce'
p4332
I1
sS'Stone'
p4333
I1
sS'earlier'
p4334
I3
sS'_we_'
p4335
I6
sS'Sometimes'
p4336
I3
sS'demanding'
p4337
I1
sS'bandbox'
p4338
I1
sS'cough'
p4339
I2
sS'advance'
p4340
I3
sS'Already'
p4341
I1
sS'language'
p4342
I5
sS'waiter'
p4343
I3
sS'renewal'
p4344
I7
sS'contented'
p4345
I4
sS'thing'
p4346
I42
sS'apologising'
p4347
I4
sS'invalidity'
p4348
I1
sS'think'
p4349
I210
sS'frequent'
p4350
I13
sS'first'
p4351
I143
sS'dwelling'
p4352
I7
sS'well-wisher'
p4353
I1
sS'fast'
p4354
I8
sS'suspended'
p4355
I2
sS'carry'
p4356
I6
sS'Probably'
p4357
I1
sS'sounds'
p4358
I1
sS'singling'
p4359
I1
sS'discharged'
p4360
I3
sS'little'
p4361
I186
sS'thoughtless'
p4362
I2
sS'slept'
p4363
I1
sS'anyone'
p4364
I29
sS'speaking'
p4365
I33
sS'gaudy'
p4366
I1
sS'eyes'
p4367
I51
sS'undoubtedly'
p4368
I7
sS'Replacement'
p4369
I1
sS'11'
p4370
I1
sS'10'
p4371
I1
sS'13'
p4372
I1
sS'12'
p4373
I1
sS'15'
p4374
I2
sS'14'
p4375
I1
sS'17'
p4376
I1
sS'16'
p4377
I1
sS'19'
p4378
I1
sS'18'
p4379
I1
sS'venture'
p4380
I5
sS'were'
p4381
I559
sS'proofread'
p4382
I1
sS'gathering'
p4383
I1
sS'topics'
p4384
I1
sS'occupies'
p4385
I1
sS'sermon-making'
p4386
I1
sS'winding'
p4387
I1
sS"'There"
p4388
I1
sS'occupied'
p4389
I5
sS'Do'
p4390
I42
sS'answering'
p4391
I3
sS'shocked'
p4392
I8
sS'performance'
p4393
I6
sS'sameness'
p4394
I1
sS'registered'
p4395
I2
sS'bets'
p4396
I1
sS'pain'
p4397
I28
sS'trace'
p4398
I4
sS'arguing'
p4399
I1
sS'paid'
p4400
I25
sS'roused'
p4401
I6
sS'entreaty'
p4402
I7
sS'sheets'
p4403
I1
sS'pair'
p4404
I2
sS'hardships'
p4405
I1
sS'especially'
p4406
I23
sS'gracefully'
p4407
I1
sS'deportment'
p4408
I1
sS'jumped'
p4409
I1
sS'stockings'
p4410
I1
sS'iniquitous'
p4411
I1
sS'shop'
p4412
I5
sS'show'
p4413
I7
sS'supposition'
p4414
I4
sS'elevate'
p4415
I1
sS'drawings'
p4416
I1
sS'Kent'
p4417
I14
sS'corner'
p4418
I1
sS"'Keep"
p4419
I1
sS'Vingt-un'
p4420
I1
sS'Wo'
p4421
I1
sS'treasure'
p4422
I2
sS'soliciting'
p4423
I2
sS'impunity'
p4424
I1
sS'manoeuvre'
p4425
I1
sS'black'
p4426
I1
sS'incredulous'
p4427
I3
sS'muffin'
p4428
I1
sS'Fitzwilliam'
p4429
I36
sS'exaggeration'
p4430
I1
sS'get'
p4431
I52
sS'persisting'
p4432
I1
sS'unimportant'
p4433
I1
sS'Clapham'
p4434
I4
sS'slyness'
p4435
I2
sS'unconsciously'
p4436
I3
sS'conjunction'
p4437
I1
sS'manager'
p4438
I1
sS'Right'
p4439
I2
sS'W.'
p4440
I2
sS'yield'
p4441
I4
sS'morning'
p4442
I79
sS'miles'
p4443
I16
sS'finishing'
p4444
I1
sS'country-town'
p4445
I1
sS'communicated'
p4446
I3
sS'silently'
p4447
I3
sS'deletions'
p4448
I1
sS'declared'
p4449
I15
sS'_when_'
p4450
I1
sS'implacability'
p4451
I1
sS'seat'
p4452
I6
sS'relative'
p4453
I3
sS'doings'
p4454
I2
sS'declares'
p4455
I1
sS'salutation'
p4456
I4
sS'COLLINS'
p4457
I1
sS'wonder'
p4458
I34
sS'satisfying'
p4459
I1
sS'repined'
p4460
I1
sS'FOR'
p4461
I3
sS'steadfast'
p4462
I1
sS'ornament'
p4463
I1
sS'Forgive'
p4464
I2
sS"father's"
p4465
I3
sS'enough'
p4466
I106
sS'reading'
p4467
I15
sS'across'
p4468
I5
sS'whispered'
p4469
I1
sS'parent'
p4470
I1
sS'parental'
p4471
I1
sS'tacit'
p4472
I1
sS'countenance'
p4473
I30
sS'Each'
p4474
I1
sS'gratefully'
p4475
I4
sS'according'
p4476
I8
sS'tour'
p4477
I6
sS'present'
p4478
I67
sS'disappointment'
p4479
I17
sS'guardians'
p4480
I1
sS'among'
p4481
I24
sS'despaired'
p4482
I3
sS'accusation'
p4483
I1
sS'maintained'
p4484
I2
sS'luckless'
p4485
I1
sS'stretched'
p4486
I1
sS'unassuming'
p4487
I3
sS'disliking'
p4488
I1
sS'writing'
p4489
I15
sS'laudable'
p4490
I1
sS'nose'
p4491
I1
sS'considering'
p4492
I13
sS'sensible'
p4493
I32
sS'arts'
p4494
I4
sS'Sure'
p4495
I1
sS'capable'
p4496
I18
sS'repine'
p4497
I4
sS'mark'
p4498
I4
sS'stanzas'
p4499
I1
sS'judging'
p4500
I2
sS'employments'
p4501
I4
sS'sensibly'
p4502
I2
sS'educated'
p4503
I2
sS'shopping'
p4504
I1
sS'offered'
p4505
I9
sS'dangerous'
p4506
I1
sS'declaration'
p4507
I5
sS'Scotch'
p4508
I2
sS'those'
p4509
I54
sS'granted'
p4510
I1
sS'sound'
p4511
I8
sS'apologised'
p4512
I2
sS'tractable'
p4513
I1
sS"n't"
p4514
I11
sS'many'
p4515
I116
sS'awakened'
p4516
I4
sS'superintendence'
p4517
I1
sS'love-making'
p4518
I1
sS'sincere'
p4519
I10
sS'coffee'
p4520
I7
sS'sleeping'
p4521
I1
sS'sprained'
p4522
I1
sS'cluster'
p4523
I1
sS'sudden'
p4524
I8
sS'wisely'
p4525
I4
sS'different'
p4526
I37
sS'pay'
p4527
I12
sS'indelicate'
p4528
I1
sS'same'
p4529
I70
sS'acquaintances'
p4530
I11
sS'speech'
p4531
I12
sS'arguments'
p4532
I4
sS'deference'
p4533
I6
sS'struggling'
p4534
I1
sS'dated'
p4535
I2
sS'dishonorable'
p4536
I1
sS'extended'
p4537
I3
sS'assist'
p4538
I7
sS'companion'
p4539
I16
sS'running'
p4540
I10
sS'scorned'
p4541
I1
sS'officiousness'
p4542
I1
sS'totally'
p4543
I8
sS'amazes'
p4544
I1
sS'bottle'
p4545
I2
sS'penetration'
p4546
I2
sS'amazed'
p4547
I4
sS'consisted'
p4548
I2
sS'gates'
p4549
I2
sS'peace'
p4550
I6
sS'affair'
p4551
I18
sS'money'
p4552
I28
sS'aspect'
p4553
I6
sS'sprang'
p4554
I1
sS'suitableness'
p4555
I3
sS'TO'
p4556
I2
sS'housemaids'
p4557
I1
sS'4'
p4558
I4
sS'Newcastle'
p4559
I4
sS'extensive'
p4560
I4
sS'heavier'
p4561
I1
sS'DISTRIBUTE'
p4562
I1
sS'Wherever'
p4563
I1
sS'admitting'
p4564
I1
sS'Denny'
p4565
I12
sS'secrecy'
p4566
I10
sS'disappointed'
p4567
I12
sS'acquainted'
p4568
I24
sS'chamber'
p4569
I1
sS'audience'
p4570
I2
sS'miraculous'
p4571
I2
sS'either'
p4572
I60
sS'bewitched'
p4573
I1
sS'voluntarily'
p4574
I6
sS'nice'
p4575
I5
sS'fulfil'
p4576
I1
sS'hysterics'
p4577
I1
sS'pronounce'
p4578
I3
sS'out_'
p4579
I1
sS'specified'
p4580
I2
sS'civilly'
p4581
I3
sS'gross'
p4582
I3
sS'mortification'
p4583
I6
sS'confirm'
p4584
I1
sS'footing'
p4585
I2
sS'critical'
p4586
I2
sS'custody'
p4587
I1
sS'expressing'
p4588
I8
sS'unluckily'
p4589
I3
sS'Chapter'
p4590
I61
sS'intrude'
p4591
I2
sS'despicably'
p4592
I1
sS'broken'
p4593
I7
sS'despicable'
p4594
I1
sS'pretended'
p4595
I2
sS'untamed'
p4596
I1
sS'son-in-law'
p4597
I4
sS'Revenue'
p4598
I1
sS'_his_'
p4599
I12
sS'violence'
p4600
I3
sS'_affect_'
p4601
I1
sS'mixed'
p4602
I2
sS'set-downs'
p4603
I1
sS'notifies'
p4604
I1
sS'out.'
p4605
I1
sS'contrariwise'
p4606
I1
sS'imitated'
p4607
I1
sS'quietly'
p4608
I8
sS'spreading'
p4609
I1
sS'blessed'
p4610
I4
sS'references'
p4611
I2
sS'pleasantry'
p4612
I2
sS'needlessly'
p4613
I1
sS'Though'
p4614
I15
sS'distracted'
p4615
I2
sS'practised'
p4616
I1
sS'decisive'
p4617
I2
sS'mornings'
p4618
I2
sS'unsettled'
p4619
I3
sS'lodgings'
p4620
I5
sS'downstairs'
p4621
I6
sS'arranged'
p4622
I2
sS'romantic'
p4623
I1
sS'Society'
p4624
I2
sS'arranges'
p4625
I1
sS'netting'
p4626
I1
sS'affection'
p4627
I58
sS'USE'
p4628
I1
sS'deliberation'
p4629
I4
sS'self-importance'
p4630
I4
sS'deep'
p4631
I7
sS'fellow'
p4632
I6
sS'imagination'
p4633
I4
sS'examine'
p4634
I2
sS'file'
p4635
I2
sS'importing'
p4636
I1
sS'lifetime'
p4637
I1
sS'fill'
p4638
I1
sS'tedious'
p4639
I1
sS'again'
p4640
I175
sS'gbnewby'
p4641
I1
sS'sufferings'
p4642
I2
sS'repent'
p4643
I1
sS'field'
p4644
I3
sS'coughing'
p4645
I1
sS'_are_'
p4646
I2
sS'important'
p4647
I11
sS'tackle'
p4648
I1
sS'prudent'
p4649
I4
sS'_three_'
p4650
I1
sS'consternation'
p4651
I1
sS'Consider'
p4652
I2
sS'starting'
p4653
I1
sS'represent'
p4654
I3
sS'forget'
p4655
I17
sS'reproofs'
p4656
I2
sS'long-expected'
p4657
I1
sS'invariable'
p4658
I1
sS'bosoms'
p4659
I1
sS'_myself_'
p4660
I1
sS'founded'
p4661
I2
sS'sunk'
p4662
I4
sS'invariably'
p4663
I2
sS'talks'
p4664
I1
sS'expressions'
p4665
I12
sS'allowances'
p4666
I1
sS'children'
p4667
I25
sS'reluctant'
p4668
I2
sS'day.'
p4669
I1
sS'inexhaustible'
p4670
I1
sS'diffuse'
p4671
I1
sS'preserved'
p4672
I4
sS'tranquillity'
p4673
I5
sS'mother.'
p4674
I1
sS'enjoying'
p4675
I4
sS'returning'
p4676
I12
sS'fall'
p4677
I9
sS'difference'
p4678
I10
sS'elated'
p4679
I1
sS'knighthood'
p4680
I2
sS'benevolent'
p4681
I1
sS'applicable'
p4682
I3
sS'reminding'
p4683
I1
sS'Ring'
p4684
I1
sS'economically'
p4685
I1
sS'designedly'
p4686
I1
sS'withheld'
p4687
I4
sS'eloped'
p4688
I1
sS'censuring'
p4689
I1
sS'Only'
p4690
I7
sS'affectation'
p4691
I2
sS'affable'
p4692
I1
sS'creatures'
p4693
I1
sS'defence'
p4694
I2
sS'stood'
p4695
I14
sS'_particularly_'
p4696
I1
sS'_expression_'
p4697
I1
sS'tribute'
p4698
I1
sS'public'
p4699
I20
sS'indistinctly'
p4700
I1
sS'compilation'
p4701
I1
sS'promising'
p4702
I4
sS'favourably'
p4703
I2
sS'puddles'
p4704
I1
sS'favourable'
p4705
I12
sS'inconsiderable'
p4706
I1
sS'Contact'
p4707
I1
sS'affectionately'
p4708
I4
sS'AGREE'
p4709
I2
sS'search'
p4710
I3
sS'stretching'
p4711
I1
sS'sofas'
p4712
I1
sS'misery'
p4713
I14
sS'narrow'
p4714
I1
sS'whimsical'
p4715
I1
sS'self-imposed'
p4716
I1
sS'sanction'
p4717
I1
sS"sister's"
p4718
I3
sS'establish'
p4719
I1
sS'readily'
p4720
I17
sS'eye'
p4721
I15
sS'nothings'
p4722
I1
sS'two'
p4723
I127
sS'comparing'
p4724
I2
sS'cultivation'
p4725
I1
sS'correspondents'
p4726
I1
sS'achieving'
p4727
I1
sS'unlink'
p4728
I1
sS'formality'
p4729
I3
sS'handsomely'
p4730
I2
sS'purse'
p4731
I1
sS'apprehensions'
p4732
I2
sS'half-whisper'
p4733
I1
sS'varying'
p4734
I2
sS'town'
p4735
I64
sS'willfully'
p4736
I1
sS'none'
p4737
I18
sS'hour'
p4738
I25
sS'middle'
p4739
I3
sS'recall'
p4740
I2
sS'remain'
p4741
I11
sS'pressing'
p4742
I5
sS'clergy'
p4743
I1
sS'//www.gutenberg.org'
p4744
I1
sS'to-night'
p4745
I1
sS'purchases'
p4746
I2
sS'compare'
p4747
I1
sS'gravely'
p4748
I4
sS'share'
p4749
I15
sS'sphere'
p4750
I2
sS'breathing'
p4751
I1
sS'purchased'
p4752
I3
sS'sharp'
p4753
I2
sS'narrowly'
p4754
I2
sS"'Bingley"
p4755
I1
sS'awkward'
p4756
I10
sS're-read'
p4757
I1
sS'turnpikes'
p4758
I1
sS'comfort'
p4759
I31
sS'venting'
p4760
I1
sS'stir'
p4761
I1
sS'charms'
p4762
I4
sS'our'
p4763
I70
sS'advice'
p4764
I16
sS'blacken'
p4765
I1
sS'interpose'
p4766
I1
sS'spurned'
p4767
I1
sS'coming'
p4768
I60
sS'crowded'
p4769
I3
sS'coat'
p4770
I4
sS'spiteful'
p4771
I1
sS'ablution'
p4772
I1
sS'mislead'
p4773
I1
sS'pleasure'
p4774
I92
sS'playing'
p4775
I6
sS'What'
p4776
I77
sS'displease'
p4777
I1
sS'heartfelt'
p4778
I1
sS'TRADEMARK'
p4779
I1
sS'appeals'
p4780
I1
sS'through'
p4781
I43
sS'heirs'
p4782
I1
sS'existence'
p4783
I3
sS'suffer'
p4784
I13
sS'drinking'
p4785
I1
sS'arrogant'
p4786
I1
sS'24'
p4787
I1
sS'25'
p4788
I1
sS'26'
p4789
I2
sS'27'
p4790
I1
sS'20'
p4791
I2
sS'21'
p4792
I1
sS'22'
p4793
I1
sS'23'
p4794
I1
sS'28'
p4795
I1
sS'29'
p4796
I1
sS'late'
p4797
I19
sS'detected'
p4798
I2
sS'resentments'
p4799
I1
sS'triumphantly'
p4800
I2
sS'good'
p4801
I171
sS'disrespectful'
p4802
I1
sS'seeking'
p4803
I7
sS'noticing'
p4804
I1
sS'prejudices'
p4805
I2
sS'obeyed'
p4806
I3
sS'prejudiced'
p4807
I1
sS'_brotherly_'
p4808
I1
sS'detach'
p4809
I1
sS'complain'
p4810
I4
sS'mystery'
p4811
I1
sS'easily'
p4812
I28
sS'celerity'
p4813
I1
sS'fluttered'
p4814
I1
sS'evade'
p4815
I1
sS'token'
p4816
I1
sS'habits'
p4817
I3
sS'_half_'
p4818
I1
sS'repeating'
p4819
I6
sS'exquisite'
p4820
I1
sS'harm'
p4821
I4
sS'everyone'
p4822
I5
sS'delicious'
p4823
I1
sS'house'
p4824
I98
sS'fish'
p4825
I5
sS'hard'
p4826
I11
sS'idea'
p4827
I49
sS'engaging'
p4828
I6
sS'connect'
p4829
I2
sS'suspecting'
p4830
I2
sS'seniority'
p4831
I1
sS'_persuasion_'
p4832
I1
sS'harp'
p4833
I1
sS'stands'
p4834
I2
sS'Adieu'
p4835
I2
sS'undervaluing'
p4836
I1
sS'projected'
p4837
I1
sS'acting'
p4838
I3
sS'flowed'
p4839
I1
sS'print'
p4840
I1
sS'fortitude'
p4841
I1
sS'tiresome'
p4842
I2
sS'pathetic'
p4843
I1
sS'circumstance'
p4844
I19
sS'pleasant'
p4845
I21
sS'difficulty'
p4846
I8
sS'contrivance'
p4847
I4
sS'disposition'
p4848
I25
sS'backed'
p4849
I1
sS'beginning'
p4850
I13
sS'benefits'
p4851
I1
sS'omit'
p4852
I1
sS'diversion'
p4853
I3
sS'conducted'
p4854
I2
sS'drawing-room'
p4855
I17
sS'indebted'
p4856
I8
sS'Anxiety'
p4857
I1
sS'disregarded'
p4858
I1
sS'_was_'
p4859
I2
sS'instances'
p4860
I4
sS'done'
p4861
I92
sS'embraced'
p4862
I2
sS'unacquainted'
p4863
I1
sS'indulgent'
p4864
I1
sS'twenty'
p4865
I7
sS'revive'
p4866
I1
sS'least'
p4867
I65
sS'paint'
p4868
I1
sS'regulation'
p4869
I1
sS'pains'
p4870
I4
sS'beloved'
p4871
I2
sS'lease'
p4872
I1
sS'Language'
p4873
I1
sS'tremblings'
p4874
I1
sS'park'
p4875
I15
sS'sensation'
p4876
I3
sS'part'
p4877
I64
sS'prodigious'
p4878
I1
sS'believe'
p4879
I84
sS'unpardonable'
p4880
I4
sS'stirs'
p4881
I1
sS'b'
p4882
I1
sS'compliments'
p4883
I10
sS'youth'
p4884
I9
sS'contrary'
p4885
I10
sS'supposed'
p4886
I26
sS'sedate'
p4887
I1
sS'treated'
p4888
I7
sS'declare'
p4889
I8
sS'consented'
p4890
I2
sS'unusual'
p4891
I1
sS'trifled'
p4892
I1
sS"'violently"
p4893
I1
sS'99712.'
p4894
I1
sS'confirms'
p4895
I1
sS'orders'
p4896
I7
sS'insufferably'
p4897
I1
sS'built'
p4898
I3
sS'refute'
p4899
I1
sS'costs'
p4900
I2
sS'build'
p4901
I1
sS'insufferable'
p4902
I1
sS'Fordyce'
p4903
I1
sS'godfather'
p4904
I1
sS'disconcerted'
p4905
I3
sS'most'
p4906
I186
sS'charm'
p4907
I6
sS'significant'
p4908
I3
sS'services'
p4909
I1
sS'engagements'
p4910
I12
sS'extremely'
p4911
I15
sS'appeased'
p4912
I1
sS'goodwill'
p4913
I2
sS'panegyric'
p4914
I2
sS'charitable'
p4915
I1
sS'_month_'
p4916
I1
sS'DISTRIBUTOR'
p4917
I1
sS'incur'
p4918
I1
sS'Robinson'
p4919
I3
sS'joining'
p4920
I5
sS'_dined_'
p4921
I1
sS'particularly'
p4922
I32
sS'obligations'
p4923
I3
sS'swelling'
p4924
I1
sS'scattered'
p4925
I3
sS'noblest'
p4926
I1
sS'relation'
p4927
I11
sS'Hill'
p4928
I8
sS'carefully'
p4929
I3
sS'diffident'
p4930
I1
sS'fine'
p4931
I30
sS'find'
p4932
I57
sS'refusals'
p4933
I1
sS'Poor'
p4934
I8
sS'depended'
p4935
I4
sS'dividing'
p4936
I1
sS'nervous'
p4937
I4
sS'ruin'
p4938
I5
sS'distributed'
p4939
I4
sS'unhappy'
p4940
I12
sS'officers.'
p4941
I1
sS'8'
p4942
I1
sS'permission'
p4943
I13
sS'express'
p4944
I24
sS'courage'
p4945
I12
sS'breast'
p4946
I2
sS'resolve'
p4947
I2
sS'Maria'
p4948
I20
sS'testifying'
p4949
I1
sS'remove'
p4950
I3
sS'coughs'
p4951
I1
sS'common'
p4952
I19
sS'Complied'
p4953
I1
sS'Attendance'
p4954
I1
sS"'AS-IS"
p4955
I1
sS'individual'
p4956
I6
sS'tender'
p4957
I4
sS'materially'
p4958
I5
sS'feared'
p4959
I11
sS'highflown'
p4960
I1
sS'visiting'
p4961
I5
sS'superseded'
p4962
I1
sS'please'
p4963
I15
sS'escaped'
p4964
I5
sS'smallest'
p4965
I11
sS'donate'
p4966
I3
sS'King'
p4967
I7
sS'intimidated'
p4968
I1
sS'lightness'
p4969
I1
sS'half-hour'
p4970
I6
sS'_may_'
p4971
I2
sS'reverse'
p4972
I1
sS'well-doing'
p4973
I1
sS'powers'
p4974
I6
sS'quarrelsome'
p4975
I1
sS'spiritless'
p4976
I2
sS'Yes'
p4977
I56
sS'Yet'
p4978
I11
sS'humoured'
p4979
I1
sS'danced'
p4980
I12
sS'point'
p4981
I46
sS'simple'
p4982
I1
sS'dances'
p4983
I10
sS'simply'
p4984
I1
sS'asserted'
p4985
I1
sS'throughout'
p4986
I4
sS'Gardiner'
p4987
I90
sS'rivals'
p4988
I1
sS'secret'
p4989
I6
sS'meeting'
p4990
I22
sS'astonishment'
p4991
I29
sS'Balls'
p4992
I1
sS'undiminished'
p4993
I1
sS'gay'
p4994
I2
sS'cruelty'
p4995
I4
sS'understand'
p4996
I31
sS'resisted'
p4997
I1
sS'unnecessarily'
p4998
I1
sS'strictest'
p4999
I1
sS'solid'
p5000
I1
sS'eclipsed'
p5001
I1
sS'deferred'
p5002
I2
sS'fun'
p5003
I8
sS'indulging'
p5004
I1
sS'employees'
p5005
I2
sS'cents'
p5006
I1
sS'violently'
p5007
I5
sS'anecdote'
p5008
I2
sS'itself'
p5009
I9
sS'Instead'
p5010
I2
sS'perverseness'
p5011
I6
sS'Easter'
p5012
I2
sS'disbelieving'
p5013
I1
sS'regulate'
p5014
I1
sS'benevolence'
p5015
I3
sS'engrossed'
p5016
I5
sS'butcher'
p5017
I1
sS'discourse'
p5018
I7
sS'ached'
p5019
I1
sS'leisurely'
p5020
I1
sS'development'
p5021
I2
sS'Gutenberg-tm'
p5022
I55
sS'unalloyed'
p5023
I1
sS'yesterday'
p5024
I13
sS'husbands'
p5025
I4
sS'moment'
p5026
I67
sS'purpose'
p5027
I19
sS'Christian'
p5028
I2
sS'grown-up'
p5029
I1
sS'rules'
p5030
I2
sS'forfeited'
p5031
I1
sS'spent'
p5032
I22
sS'morrow'
p5033
I5
sS'appertain'
p5034
I1
sS"Gardiner's"
p5035
I4
sS'spend'
p5036
I13
sS'shape'
p5037
I2
sS'openly'
p5038
I8
sS'thorough'
p5039
I2
sS'irritable'
p5040
I2
sS'alternative'
p5041
I3
sS'dishonesty'
p5042
I1
sS'injuries'
p5043
I1
sS'letting'
p5044
I5
sS'1.E'
p5045
I2
sS'cup'
p5046
I1
sS'hated'
p5047
I4
sS'alternate'
p5048
I2
sS'source'
p5049
I6
sS'studious'
p5050
I1
sS'overtook'
p5051
I1
sS'deliberately'
p5052
I2
sS'reproof'
p5053
I4
sS'excited'
p5054
I10
sS'hates'
p5055
I2
sS'womanly'
p5056
I1
sS'valueless'
p5057
I1
sS'Did'
p5058
I13
sS'bid'
p5059
I1
sS'judgement'
p5060
I11
sS'matters'
p5061
I8
sS'three-and-twenty'
p5062
I3
sS'bit'
p5063
I3
sS'irretrievable'
p5064
I1
sS'blemish'
p5065
I1
sS'follows'
p5066
I8
sS'Whatever'
p5067
I6
sS'mediocrity'
p5068
I1
sS'foolish'
p5069
I8
sS'grossest'
p5070
I1
sS'often'
p5071
I90
sS'absolutely'
p5072
I18
sS'obliged'
p5073
I29
sS'abundantly'
p5074
I3
sS'back'
p5075
I41
sS'strongest'
p5076
I1
sS'insincere'
p5077
I2
sS'triumphing'
p5078
I1
sS'ornaments'
p5079
I2
sS'Edward-street'
p5080
I1
sS'hazarded'
p5081
I1
sS'ourselves'
p5082
I8
sS'pronounced'
p5083
I10
sS'acquaintance'
p5084
I52
sS'culprit'
p5085
I1
sS'proficient'
p5086
I1
sS'per'
p5087
I3
sS'pen'
p5088
I2
sS'Nothing'
p5089
I14
sS'London'
p5090
I55
sS'resolutely'
p5091
I3
sS'laughing'
p5092
I10
sS'unpleasantly'
p5093
I1
sS'patient'
p5094
I1
sS'remembered'
p5095
I9
sS'Follies'
p5096
I1
sS'peculiarly'
p5097
I3
sS'continuing'
p5098
I2
sS'good_'
p5099
I1
sS'from'
p5100
I486
sS'hackneyed'
p5101
I1
sS'inhumanity'
p5102
I1
sS'implicitness'
p5103
I1
sS'conciliatory'
p5104
I1
sS'Captain'
p5105
I4
sS'tenants'
p5106
I2
sS'pollution'
p5107
I1
sS'connubial'
p5108
I1
sS'abusive'
p5109
I2
sS'Bennet'
p5110
I320
sS'remembrance'
p5111
I3
sS'lesson'
p5112
I2
sS'errand'
p5113
I1
sS'controverted'
p5114
I1
sS'overpower'
p5115
I1
sS'Excellent'
p5116
I1
sS'forward'
p5117
I27
sS'Come'
p5118
I8
sS'invite'
p5119
I6
sS'adjusting'
p5120
I1
sS'hoped'
p5121
I20
sS'boys'
p5122
I3
sS'delighting'
p5123
I1
sS'hopes'
p5124
I23
sS'calico'
p5125
I1
sS'directed'
p5126
I9
sS'rejection'
p5127
I2
sS'Bennets'
p5128
I10
sS'Soon'
p5129
I2
sS'unreserve'
p5130
I1
sS'Books'
p5131
I1
sS'depreciate'
p5132
I1
sS'possession'
p5133
I10
sS'constant'
p5134
I13
sS'Perhaps'
p5135
I19
sS'Dr.'
p5136
I2
sS'possessor'
p5137
I2
sS'deprive'
p5138
I1
sS'scarlet'
p5139
I2
sS'single'
p5140
I11
sS'cure'
p5141
I1
sS'prevail'
p5142
I2
sS'denying'
p5143
I1
sS'%'
p5144
I1
sS'excused'
p5145
I2
sS'May'
p5146
I7
sS'excuses'
p5147
I2
sS'calmness'
p5148
I4
sS'explaining'
p5149
I3
sS'good-naturedly'
p5150
I1
sS'accidental'
p5151
I3
sS'lend'
p5152
I1
sS'favourite'
p5153
I22
sS'papa'
p5154
I5
sS'prepared'
p5155
I10
sS'restoration'
p5156
I3
sS'utterly'
p5157
I1
sS'desert'
p5158
I1
sS'rallied'
p5159
I2
sS'implies'
p5160
I1
sS'sore'
p5161
I1
sS'Accept'
p5162
I1
sS'amused'
p5163
I6
sS'implied'
p5164
I2
sS'conjugal'
p5165
I2
sS'2008'
p5166
I1
sS'intricate'
p5167
I2
sS'compose'
p5168
I3
sS'repinings'
p5169
I1
sS'gravel'
p5170
I3
sS'presently'
p5171
I2
sS'putting'
p5172
I4
sS'accuse'
p5173
I4
sS'arrange'
p5174
I1
sS'recreation'
p5175
I1
sS'moderate'
p5176
I2
sS'respectful'
p5177
I1
sS'profligacy'
p5178
I1
sS'shock'
p5179
I2
sS'Long'
p5180
I15
sS'rivers'
p5181
I1
sS'Annesley'
p5182
I3
sS'uncomfortable'
p5183
I7
sS'exuberant'
p5184
I1
sS'reconciliation'
p5185
I2
sS'formats'
p5186
I2
sS'giving'
p5187
I25
sS'assisted'
p5188
I4
sS'fat'
p5189
I1
sS'inconveniences'
p5190
I2
sS'access'
p5191
I10
sS'Birmingham'
p5192
I1
sS'exercise'
p5193
I6
sS'mortifications'
p5194
I1
sS'body'
p5195
I2
sS'justification'
p5196
I1
sS'Professor'
p5197
I1
sS'packing'
p5198
I1
sS'objects'
p5199
I7
sS'licentiousness'
p5200
I1
sS'sink'
p5201
I3
sS'others'
p5202
I53
sS'dissuade'
p5203
I1
sS'sing'
p5204
I5
sS'implicit'
p5205
I1
sS'painfully'
p5206
I2
sS'remark'
p5207
I3
sS'38'
p5208
I1
sS'talent'
p5209
I2
sS'conceit'
p5210
I4
sS'32'
p5211
I1
sS'31'
p5212
I1
sS'30'
p5213
I2
sS'37'
p5214
I1
sS'36'
p5215
I1
sS'35'
p5216
I1
sS'34'
p5217
I1
sS'principally'
p5218
I5
sS'proof'
p5219
I7
sS'courting'
p5220
I1
sS'composed'
p5221
I3
sS'abominate'
p5222
I2
sS'named'
p5223
I2
sS'conjecturing'
p5224
I2
sS'private'
p5225
I11
sS'extravagance'
p5226
I4
sS'names'
p5227
I6
sS'proprietary'
p5228
I1
sS'sermon'
p5229
I1
sS'Dale'
p5230
I1
sS'readable'
p5231
I2
sS'earnestness'
p5232
I2
sS'copse'
p5233
I4
sS'contrariety'
p5234
I1
sS'butler'
p5235
I1
sS'themselves'
p5236
I34
sS'E'
p5237
I1
sS'prized'
p5238
I1
sS'dispirited'
p5239
I1
sS'endurable'
p5240
I1
sS'trait'
p5241
I1
sS'train'
p5242
I1
sS'prizes'
p5243
I1
sS'ashamed'
p5244
I16
sS'arranging'
p5245
I2
sS'procuring'
p5246
I3
sS'unforgiving'
p5247
I2
sS'duped'
p5248
I1
sS'hints'
p5249
I4
sS'Easter-day'
p5250
I1
sS'account'
p5251
I38
sS'inclinations'
p5252
I1
sS'simpered'
p5253
I1
sS'obvious'
p5254
I1
sS'praise'
p5255
I22
sS'fetch'
p5256
I3
sS'F.'
p5257
I5
sS'reanimated'
p5258
I1
sS'reserved'
p5259
I7
sS'proportions'
p5260
I1
sS'renewed'
p5261
I6
sS'reserves'
p5262
I3
sS'_He_'
p5263
I2
sS'contempt'
p5264
I12
sS'daring'
p5265
I2
sS'awkwardness'
p5266
I3
sS'dinners'
p5267
I2
sS'sweetest-tempered'
p5268
I1
sS'attachment'
p5269
I27
sS'meditated'
p5270
I2
sS'annexed'
p5271
I1
sS'philosophy'
p5272
I5
sS'collection'
p5273
I8
sS'united'
p5274
I7
sS'preferred'
p5275
I3
sS'yielded'
p5276
I2
sS'pleasantness'
p5277
I3
sS'trifling'
p5278
I5
sS'friendlier'
p5279
I1
sS'lines'
p5280
I9
sS'correspond'
p5281
I1
sS'trembling'
p5282
I1
sS'chief'
p5283
I15
sS'road'
p5284
I13
sS'CAROLINE'
p5285
I1
sS'furnish'
p5286
I4
sS'REFUND'
p5287
I1
sS'six'
p5288
I10
sS'disarm'
p5289
I1
sS'alacrity'
p5290
I5
sS'flattering'
p5291
I4
sS'nasty'
p5292
I1
sS'revived'
p5293
I3
sS'located'
p5294
I4
sS'dressing-room'
p5295
I5
sS'decorum'
p5296
I4
sS'No'
p5297
I52
sS'_younger_'
p5298
I1
sS'Director'
p5299
I1
sS'willing'
p5300
I6
sS'stepped'
p5301
I1
sS'FOUNDATION'
p5302
I1
sS'greater'
p5303
I25
sS'later'
p5304
I3
sS'mention'
p5305
I30
sS'cutting'
p5306
I1
sS'kindness'
p5307
I29
sS'day'
p5308
I131
sS'slacken'
p5309
I1
sS'warned'
p5310
I1
sS'Affectation'
p5311
I1
sS'Philips'
p5312
I1
sS'From'
p5313
I22
sS'incensed'
p5314
I2
sS'defend'
p5315
I3
sS'Regard'
p5316
I1
sS'wholly'
p5317
I25
sS'wearisome'
p5318
I1
sS'announced'
p5319
I3
sS'thereupon'
p5320
I2
sS'approached'
p5321
I6
sS'likelihood'
p5322
I5
sS'backwards'
p5323
I1
sS'deprived'
p5324
I3
sS'NO'
p5325
I2
sS'qualification'
p5326
I1
sS'mortal'
p5327
I2
sS'charmingly'
p5328
I2
sS'retain'
p5329
I1
sS'grieving'
p5330
I1
sS'predominate'
p5331
I1
sS'finest'
p5332
I2
sS'embarrassed'
p5333
I7
sS'improvements'
p5334
I1
sS'reached'
p5335
I18
sS'commendations'
p5336
I1
sS'ancient'
p5337
I1
sS'sadly'
p5338
I2
sS'vulgar'
p5339
I2
sS'immovable'
p5340
I2
sS'DEAREST'
p5341
I1
sS'acquiescence'
p5342
I2
sS'agonies'
p5343
I1
sS'Cheapside'
p5344
I2
sS'explanation'
p5345
I10
sS'acquire'
p5346
I1
sS'perforce'
p5347
I1
sS'mantelpiece'
p5348
I3
sS'vouchsafed'
p5349
I1
sS'expences'
p5350
I1
sS'detection'
p5351
I2
sS'counteract'
p5352
I1
sS'compensation'
p5353
I1
sS'circumspect'
p5354
I1
sS'loves'
p5355
I2
sS'lover'
p5356
I5
sS'visited'
p5357
I4
sS'NEGLIGENCE'
p5358
I1
sS'comfortable'
p5359
I12
sS'tide'
p5360
I2
sS'Redistributing'
p5361
I1
sS'comfortably'
p5362
I2
sS'pitiable'
p5363
I3
sS'unlikely'
p5364
I4
sS'have'
p5365
I833
sS'dictate'
p5366
I1
sS'throat'
p5367
I1
sS'keener'
p5368
I1
sS'apparently'
p5369
I2
sS'venturing'
p5370
I1
sS'wits'
p5371
I1
sS'gravity'
p5372
I4
sS'mix'
p5373
I1
sS'concerns'
p5374
I8
sS'provoked'
p5375
I3
sS'chaise'
p5376
I11
sS'Nicholls'
p5377
I2
sS'unless'
p5378
I21
sS'procure'
p5379
I1
sS'pausing'
p5380
I2
sS'Without'
p5381
I4
sS'eight'
p5382
I9
sS'payment'
p5383
I1
sS'afresh'
p5384
I1
sS'RIGHT'
p5385
I1
sS'heartening'
p5386
I1
sS'Some'
p5387
I6
sS'absurd'
p5388
I5
sS'occasion'
p5389
I38
sS'beauteous'
p5390
I1
sS'Saturday'
p5391
I17
sS'improprieties'
p5392
I1
sS'supported'
p5393
I4
sS'BUT'
p5394
I1
sS'rebuke'
p5395
I1
sS'staff'
p5396
I1
sS'inspiring'
p5397
I1
sS'pleasantest'
p5398
I1
sS'knowledge'
p5399
I20
sS'York'
p5400
I1
sS'inferior'
p5401
I5
sS'regularly'
p5402
I1
sS'Compliments'
p5403
I1
sS'exceptional'
p5404
I1
sS'bear'
p5405
I25
sS'pglaf.org'
p5406
I2
sS'calling'
p5407
I14
sS'Austen'
p5408
I4
sS'fixed'
p5409
I21
sS'madam'
p5410
I18
sS'exists'
p5411
I1
sS'racked'
p5412
I1
sS'Thoughtlessness'
p5413
I1
sS'refrained'
p5414
I1
sS'watchfulness'
p5415
I2
sS'brittle'
p5416
I1
sS'attempting'
p5417
I4
sS'clearing'
p5418
I1
sS'purses'
p5419
I1
sS'LIABILITY'
p5420
I1
sS'encamped'
p5421
I1
sS'progress'
p5422
I5
sS'boundary'
p5423
I2
sS'admiration'
p5424
I25
sS'smilingly'
p5425
I2
sS'sorrow'
p5426
I4
sS'firmness'
p5427
I1
sS'exclaim'
p5428
I1
sS'instant'
p5429
I6
sS'joke'
p5430
I3
sS'taking'
p5431
I18
sS'equal'
p5432
I30
sS'attributed'
p5433
I5
sS'assure'
p5434
I39
sS'_them_'
p5435
I6
sS'Design'
p5436
I1
sS'conquered'
p5437
I1
sS'passing'
p5438
I11
sS'otherwise'
p5439
I16
sS'vent'
p5440
I2
sS'Unfeeling'
p5441
I1
sS'travellers'
p5442
I3
sS'Collinses'
p5443
I5
sS'teasing'
p5444
I6
sS'laugh'
p5445
I16
sS'pouring'
p5446
I1
sS'copies'
p5447
I7
sS'composedly'
p5448
I3
sS'gaze'
p5449
I1
sS'devoting'
p5450
I1
sS"lady's"
p5451
I1
sS'proposal'
p5452
I10
sS'stationed'
p5453
I3
sS'Among'
p5454
I1
sS'assert'
p5455
I5
sS'finished'
p5456
I10
sS'tenderly'
p5457
I2
sS'watches'
p5458
I1
sS'general'
p5459
I49
sS'arisen'
p5460
I5
sS'volunteer'
p5461
I1
sS'welcoming'
p5462
I1
sS'plain'
p5463
I11
sS'appearance'
p5464
I30
sS'value'
p5465
I9
sS'General'
p5466
I5
sS'promoted'
p5467
I1
sS'ensuing'
p5468
I1
sS'handwriting'
p5469
I1
sS'carved'
p5470
I1
sS'almost'
p5471
I60
sS'weighed'
p5472
I2
sS'arrangements'
p5473
I1
sS'claimed'
p5474
I3
sS'partner'
p5475
I17
sS'watchful'
p5476
I1
sS')'
p5477
I38
sS'allurements'
p5478
I1
sS'brightened'
p5479
I1
sS'well-grown'
p5480
I1
sS'frivolous'
p5481
I3
sS'injured'
p5482
I4
sS'material'
p5483
I9
sS'novels'
p5484
I1
sS'reporting'
p5485
I1
sS'sisters'
p5486
I76
sS'invitations'
p5487
I1
sS'judgment'
p5488
I2
sS'thought'
p5489
I112
sS'exceedingly'
p5490
I25
sS'position'
p5491
I1
sS'arising'
p5492
I5
sS'insipidity'
p5493
I1
sS'usual'
p5494
I34
sS'LICENSE'
p5495
I2
sS'sister-in-law'
p5496
I2
sS'domestic'
p5497
I7
sS'stored'
p5498
I1
sS'surpass'
p5499
I1
sS'seats'
p5500
I2
sS'tea-things'
p5501
I1
sS'dissuaded'
p5502
I1
sS'discreditable'
p5503
I1
sS'Ramsgate'
p5504
I3
sS'Friday'
p5505
I1
sS'recommending'
p5506
I2
sS'add'
p5507
I12
sS'good-will'
p5508
I1
sS'destroy'
p5509
I2
sS'match'
p5510
I24
sS'resolved'
p5511
I31
sS'punctual'
p5512
I3
sS'_spoke_'
p5513
I1
sS'royalty'
p5514
I1
sS'Release'
p5515
I1
sS'construing'
p5516
I1
sS'Chamberlayne'
p5517
I1
sS'like'
p5518
I77
sS'success'
p5519
I18
sS'housekeeper'
p5520
I16
sS'admitted'
p5521
I9
sS'works'
p5522
I32
sS'audible'
p5523
I1
sS'accessible'
p5524
I1
sS'decease'
p5525
I3
sS'authority'
p5526
I9
sS'hair'
p5527
I3
sS'convey'
p5528
I2
sS'recommendation'
p5529
I4
sS'proper'
p5530
I20
sS'paddock'
p5531
I3
sS'stuffy'
p5532
I1
sS'happens'
p5533
I4
sS'KIND'
p5534
I1
sS'discretion'
p5535
I5
sS'regain'
p5536
I1
sS'noise'
p5537
I3
sS'slight'
p5538
I18
sS'crossing'
p5539
I2
sS'although'
p5540
I1
sS'worthy'
p5541
I3
sS'vivacity'
p5542
I2
sS'well-informed'
p5543
I1
sS'noisy'
p5544
I3
sS'about'
p5545
I123
sS'actual'
p5546
I5
sS'Ashworth'
p5547
I1
sS'follies'
p5548
I3
sS'certainty'
p5549
I8
sS'serviceable'
p5550
I1
sS'15th'
p5551
I1
sS'coachman'
p5552
I1
sS'introduced'
p5553
I9
sS'rendered'
p5554
I10
sS'intimation'
p5555
I1
sS'depart'
p5556
I4
sS'Two'
p5557
I5
sS'guard'
p5558
I7
sS'esteem'
p5559
I11
sS'female'
p5560
I8
sS'ridge'
p5561
I1
sS'rushed'
p5562
I1
sS'avowed'
p5563
I3
sS'Lydia'
p5564
I166
sS'November'
p5565
I5
sS'buy'
p5566
I4
sS'sequel'
p5567
I1
sS'preparations'
p5568
I2
sS'repeated'
p5569
I21
sS'plague'
p5570
I3
sS'contemptuously'
p5571
I1
sS'embargo'
p5572
I1
sS'stratagems'
p5573
I1
sS'wise'
p5574
I5
sS'glory'
p5575
I1
sS'wish'
p5576
I98
sS'minutes'
p5577
I36
sS'replying'
p5578
I3
sS'whisper'
p5579
I9
sS'measure'
p5580
I5
sS'periods'
p5581
I1
sS'relates'
p5582
I3
sS'Redistribution'
p5583
I1
sS'unintelligible'
p5584
I1
sS'48'
p5585
I1
sS'49'
p5586
I1
sS'46'
p5587
I1
sS'dressed'
p5588
I6
sS'44'
p5589
I1
sS'45'
p5590
I1
sS'42'
p5591
I1
sS'43'
p5592
I1
sS'40'
p5593
I1
sS'41'
p5594
I1
sS'dresses'
p5595
I1
sS'Younger'
p5596
I1
sS'insupportable'
p5597
I3
sS'self-destined'
p5598
I1
sS'1342.txt'
p5599
I1
sS'variation'
p5600
I2
sS'April'
p5601
I1
sS'_ought_'
p5602
I1
sS'acknowledgment'
p5603
I3
sS'ramble'
p5604
I2
sS'resolution'
p5605
I19
sS'Thus'
p5606
I2
sS'entreat'
p5607
I6
sS'Pleased'
p5608
I1
sS'augmented'
p5609
I1
sS'limited'
p5610
I2
sS'SIR'
p5611
I2
sS'comparatively'
p5612
I3
sS'synonymously'
p5613
I1
sS'Dining'
p5614
I1
sS'sleep'
p5615
I4
sS'hating'
p5616
I1
sS'appetite'
p5617
I2
sS'hate'
p5618
I8
sS'assembled'
p5619
I6
sS'poorly'
p5620
I3
sS'whatsoever'
p5621
I2
sS'under'
p5622
I37
sS'pride'
p5623
I45
sS'regrets'
p5624
I3
sS'informality'
p5625
I1
sS'@'
p5626
I2
sS'conjecture'
p5627
I7
sS'louder'
p5628
I1
sS'risk'
p5629
I4
sS'dispense'
p5630
I1
sS'rise'
p5631
I2
sS'every'
p5632
I183
sS'gratification'
p5633
I1
sS'softened'
p5634
I6
sS'frailty'
p5635
I1
sS'vastly'
p5636
I1
sS'fireplace'
p5637
I1
sS'encounter'
p5638
I3
sS'school'
p5639
I2
sS'empty-headed'
p5640
I1
sS'frankness'
p5641
I4
sS'conceive'
p5642
I3
sS'guiding'
p5643
I1
sS'_remind_'
p5644
I1
sS'Go'
p5645
I2
sS'delightfully'
p5646
I4
sS'half-hours'
p5647
I1
sS'enjoy'
p5648
I8
sS'parted'
p5649
I14
sS'ungenerous'
p5650
I3
sS'infancy'
p5651
I2
sS'construed'
p5652
I1
sS'consistent'
p5653
I3
sS'feathers'
p5654
I1
sS'direct'
p5655
I7
sS'surrounding'
p5656
I2
sS'persuade'
p5657
I18
sS'estimated'
p5658
I1
sS'expressive'
p5659
I2
sS'blue'
p5660
I2
sS'hide'
p5661
I2
sS'solemn'
p5662
I5
sS'selected'
p5663
I3
sS'liberty'
p5664
I7
sS'conduct'
p5665
I23
sS'half-past'
p5666
I1
sS'stared'
p5667
I5
sS'hundreds'
p5668
I1
sS'humility'
p5669
I5
sS'represented'
p5670
I7
sS'path'
p5671
I4
sS'shortness'
p5672
I1
sS'paining'
p5673
I1
sS'property'
p5674
I10
sS'ill.'
p5675
I4
sS'leaves'
p5676
I2
sS'ridicule'
p5677
I5
sS'proportioned'
p5678
I1
sS'well-bred'
p5679
I4
sS'created_'
p5680
I1
sS'settled'
p5681
I48
sS'punishment'
p5682
I5
sS'ventured'
p5683
I7
sS'verdure'
p5684
I1
sS'_hers_'
p5685
I1
sS'feelings'
p5686
I86
sS'patience'
p5687
I9
sS'sympathise'
p5688
I1
sS'would'
p5689
I465
sS'June'
p5690
I4
sS'lessening'
p5691
I1
sS'distributing'
p5692
I7
sS'tradesman'
p5693
I2
sS'barbarous'
p5694
I1
sS'acceded'
p5695
I1
sS'grief'
p5696
I2
sS'ardently'
p5697
I2
sS'excellent'
p5698
I18
sS'outdated'
p5699
I1
sS'broad-faced'
p5700
I1
sS'must'
p5701
I314
sS'me'
p5702
I430
sS'join'
p5703
I19
sS'entertained'
p5704
I7
sS'my'
p5705
I587
sS'quarrel'
p5706
I5
sS'estate'
p5707
I20
sS'ingenuity'
p5708
I2
sS'overheard'
p5709
I3
sS'Lord'
p5710
I10
sS'times'
p5711
I19
sS'overpowered'
p5712
I3
sS'ceremony'
p5713
I5
sS'end'
p5714
I29
sS'scolding'
p5715
I2
sS'sitting'
p5716
I20
sS'accusations'
p5717
I3
sS'gate'
p5718
I6
sS'description'
p5719
I7
sS'mouths'
p5720
I2
sS'mess'
p5721
I1
sS'delicacy'
p5722
I11
sS'imaginable'
p5723
I2
sS'sparkled'
p5724
I2
sS'unguarded'
p5725
I4
sS'jumping'
p5726
I1
sS'Mamma'
p5727
I3
sS'splendid'
p5728
I4
sS'prepossession'
p5729
I2
sS'amid'
p5730
I1
sS'acknowledged'
p5731
I20
sS'enter'
p5732
I12
sS'aloud'
p5733
I11
sS'Beyond'
p5734
I1
sS'executed'
p5735
I1
sS'interpretation'
p5736
I1
sS'over'
p5737
I89
sS'expects'
p5738
I1
sS'unsubdued'
p5739
I1
sS'sickly'
p5740
I4
sS'PREJUDICE'
p5741
I3
sS'DAMAGES'
p5742
I2
sS'hypocrisy'
p5743
I1
sS'expectations'
p5744
I7
sS'Here'
p5745
I10
sS'comprehend'
p5746
I19
sS'destroyed'
p5747
I2
sS'Convinced'
p5748
I1
sS'_had_'
p5749
I3
sS'nightcap'
p5750
I1
sS'blots'
p5751
I1
sS'prevented'
p5752
I23
sS'echo'
p5753
I1
sS'_another'
p5754
I1
sS'obligingly'
p5755
I1
sS'gloom'
p5756
I3
sS'Four'
p5757
I4
sS'filling'
p5758
I1
sS'victory'
p5759
I1
sS'each'
p5760
I63
sS'wantonly'
p5761
I1
sS'lasting'
p5762
I2
sS'practising'
p5763
I1
sS'INDIRECT'
p5764
I1
sS'overcame'
p5765
I3
sS'driving'
p5766
I4
sS'William'
p5767
I45
sS'laid'
p5768
I8
sS'unabashed'
p5769
I1
sS'got'
p5770
I25
sS'GARDINER'
p5771
I3
sS'independence'
p5772
I6
sS'repining'
p5773
I1
sS'hang'
p5774
I1
sS'free'
p5775
I12
sS'formation'
p5776
I1
sS'rain'
p5777
I4
sS'wanted'
p5778
I24
sS'fret'
p5779
I3
sS'days'
p5780
I34
sS'hopeless'
p5781
I7
sS'aspire'
p5782
I1
sS'rang'
p5783
I1
sS'already'
p5784
I28
sS'officious'
p5785
I3
sS'attractions'
p5786
I4
sS'encouraging'
p5787
I4
sS'rank'
p5788
I12
sS'hearing'
p5789
I24
sS'rant'
p5790
I1
sS'adopted'
p5791
I1
sS'awoke'
p5792
I1
sS'discomposed'
p5793
I2
sS'revival'
p5794
I1
sS'top'
p5795
I1
sS'kinder'
p5796
I2
sS'confirming'
p5797
I2
sS'too'
p5798
I141
sS'gowns'
p5799
I2
sS'inconvenient'
p5800
I4
sS'_My_'
p5801
I3
sS'curtains'
p5802
I1
sS'illiterate'
p5803
I1
sS'indiscreet'
p5804
I1
sS'griefs'
p5805
I1
sS'serve'
p5806
I2
sS'took'
p5807
I53
sS'Twice'
p5808
I1
sS'perseveringly'
p5809
I1
sS'Oakham'
p5810
I1
sS'frankly'
p5811
I1
sS'final'
p5812
I1
sS'mirth'
p5813
I2
sS'bridge'
p5814
I3
sS'fashion'
p5815
I7
sS'handkerchief'
p5816
I1
sS'ran'
p5817
I13
sS'eloping'
p5818
I1
sS'talking'
p5819
I39
sS'advising'
p5820
I1
sS'further'
p5821
I22
sS'unaffected'
p5822
I5
sS'INDEMNITY'
p5823
I1
sS'rapacity'
p5824
I1
sS'thoroughly'
p5825
I2
sS'-'
p5826
I7
sS'elegance'
p5827
I9
sS'laughed'
p5828
I11
sS'propitious'
p5829
I1
sS'inured'
p5830
I1
sS'detained'
p5831
I3
sS'though'
p5832
I211
sS'censured'
p5833
I2
sS'plenty'
p5834
I1
sS'philosophic'
p5835
I1
sS'parting'
p5836
I7
sS'glow'
p5837
I3
sS'constancy'
p5838
I1
sS'flow'
p5839
I4
sS'orderly'
p5840
I1
sS'reputation'
p5841
I3
sS'Its'
p5842
I6
sS'inspire'
p5843
I1
sS'dupe'
p5844
I1
sS'rector'
p5845
I3
sS'earth'
p5846
I1
sS'adoration'
p5847
I1
sS'spite'
p5848
I23
sS'refreshment'
p5849
I5
sS'door-bell'
p5850
I2
sS'disgust'
p5851
I5
sS'lodge'
p5852
I1
sS'announce'
p5853
I4
sS'dullness'
p5854
I1
sS'borrowed'
p5855
I1
sS'Refund'
p5856
I1
sS'mixture'
p5857
I5
sS'watch'
p5858
I2
sS'wedding'
p5859
I14
sS'report'
p5860
I17
sS'overbearing'
p5861
I1
sS'countries'
p5862
I1
sS'anxiously'
p5863
I2
sS'twice'
p5864
I13
sS'thanks'
p5865
I14
sS'_more_'
p5866
I3
sS'elopement'
p5867
I9
sS'penance'
p5868
I1
sS'presuming'
p5869
I1
sS'habit'
p5870
I7
sS'resist'
p5871
I4
sS'Pen'
p5872
I1
sS'submitted'
p5873
I1
sS'corrupt'
p5874
I1
sS'SUCH'
p5875
I1
sS'accede'
p5876
I1
sS'capacity'
p5877
I1
sS'temptation'
p5878
I7
sS'continually'
p5879
I6
sS'mud'
p5880
I1
sS'approach'
p5881
I8
sS'discovery'
p5882
I7
sS'confusion'
p5883
I11
sS'weak'
p5884
I6
sS'however'
p5885
I128
sS'archly'
p5886
I2
sS'wear'
p5887
I1
sS'Haye'
p5888
I1
sS'news'
p5889
I32
sS'ill-success'
p5890
I1
sS'blasted'
p5891
I1
sS'improve'
p5892
I3
sS'_retaining_'
p5893
I1
sS'protect'
p5894
I2
sS'_family_'
p5895
I1
sS'fault'
p5896
I7
sS'extracts'
p5897
I2
sS'subjoin'
p5898
I1
sS'players'
p5899
I2
sS'mildly'
p5900
I1
sS'faces'
p5901
I3
sS'expense'
p5902
I7
sS'vexed'
p5903
I8
sS'confide'
p5904
I1
sS'comprehension'
p5905
I1
sS'trust'
p5906
I15
sS'conference'
p5907
I4
sS'1.E.1'
p5908
I5
sS'warehouses'
p5909
I2
sS'been'
p5910
I515
sS'quickly'
p5911
I4
sS'confident'
p5912
I3
sS'spread'
p5913
I4
sS'expected'
p5914
I42
sS'board'
p5915
I1
sS'speeches'
p5916
I3
sS'uncommon'
p5917
I5
sS'catch'
p5918
I4
sS'apprehension'
p5919
I12
sS'lessen'
p5920
I4
sS'tolerable'
p5921
I14
sS'discontentedness'
p5922
I1
sS'stopping'
p5923
I3
sS'expenses'
p5924
I5
sS'Write'
p5925
I1
sS'punctuality'
p5926
I2
sS'Tell'
p5927
I5
sS'containing'
p5928
I3
sS'suggest'
p5929
I2
sS'wound'
p5930
I2
sS'levelled'
p5931
I1
sS'GUTENBERG'
p5932
I3
sS'James'
p5933
I6
sS'several'
p5934
I24
sS'action'
p5935
I2
sS'afraid'
p5936
I37
sS'characters'
p5937
I3
sS'insisted'
p5938
I1
sS'mentioning'
p5939
I7
sS'hearth'
p5940
I1
sS'shortly'
p5941
I12
sS'incredulity'
p5942
I3
sS"mother's"
p5943
I5
sS'possessed'
p5944
I2
sS'hearty'
p5945
I2
sS'greatest'
p5946
I20
sS'incapable'
p5947
I8
sS'mother'
p5948
I129
sS'alarms'
p5949
I1
sS'possesses'
p5950
I1
sS'Sarah'
p5951
I1
sS'appease'
p5952
I1
sS'departed'
p5953
I2
sS'proposed'
p5954
I5
sS'Georgiana'
p5955
I15
sS'resigning'
p5956
I1
sS'strenuously'
p5957
I2
sS'vices'
p5958
I1
sS'tolerably'
p5959
I14
sS'meanly'
p5960
I3
sS'explanatory'
p5961
I1
sS'pitiful'
p5962
I2
sS'breakfasted'
p5963
I1
sS'humanity'
p5964
I2
sS'gave'
p5965
I54
sS'hermitage'
p5966
I1
sS'advances'
p5967
I1
sS'descending'
p5968
I2
sS'judge'
p5969
I12
sS'59'
p5970
I1
sS'burnt'
p5971
I1
sS'scruple'
p5972
I4
sS'advanced'
p5973
I5
sS'appearing'
p5974
I7
sS'58'
p5975
I1
sS'gift'
p5976
I1
sS'55'
p5977
I1
sS'contradict'
p5978
I2
sS'57'
p5979
I1
sS'56'
p5980
I1
sS'dishonest'
p5981
I1
sS'50'
p5982
I2
sS'quadrille'
p5983
I4
sS'52'
p5984
I1
sS'specific'
p5985
I1
sS'renamed'
p5986
I1
sS'officer'
p5987
I8
sS'54'
p5988
I1
sS'Again'
p5989
I2
sS'51'
p5990
I1
sS'successfully'
p5991
I1
sS'proudly'
p5992
I1
sS'Much'
p5993
I4
sS'53'
p5994
I1
sS'displeasure'
p5995
I6
sS'escape'
p5996
I10
sS'1342.zip'
p5997
I1
sS'indirect'
p5998
I2
sS'rapidity'
p5999
I4
sS'proceeding'
p6000
I6
sS'companions'
p6001
I7
sS'everything'
p6002
I41
sS'He'
p6003
I233
sS'permitted'
p6004
I3
sS'limitation'
p6005
I3
sS'composure'
p6006
I16
sS'attacks'
p6007
I3
sS'dinner'
p6008
I33
sS'misleading'
p6009
I1
sS'ensure'
p6010
I2
sS'steadily'
p6011
I3
sS'efforts'
p6012
I5
sS'discharging'
p6013
I2
sS'presence'
p6014
I6
sS'civil'
p6015
I18
sS'puzzle'
p6016
I2
sS'brother-in-law'
p6017
I3
sS'visible'
p6018
I5
sS'uncontrolled'
p6019
I1
sS'accomplishments'
p6020
I5
sS'existed'
p6021
I3
sS'rely'
p6022
I1
sS'personage'
p6023
I1
sS'class'
p6024
I2
sS'gig'
p6025
I1
sS'indispensably'
p6026
I1
sS'partridges'
p6027
I1
sS'purposely'
p6028
I6
sS'wavering'
p6029
I1
sS'head'
p6030
I32
sS'medium'
p6031
I5
sS'attempted'
p6032
I4
sS'heal'
p6033
I1
sS'differences'
p6034
I1
sS'deny'
p6035
I8
sS'26th'
p6036
I1
sS'hear'
p6037
I71
sS'liveliest'
p6038
I3
sS'sustained'
p6039
I1
sS'removed'
p6040
I18
sS"se'nnight"
p6041
I1
sS'ruined'
p6042
I2
sS'trim'
p6043
I1
sS'impropriety'
p6044
I5
sS'suspicions'
p6045
I4
sS'ill-natured'
p6046
I5
sS'check'
p6047
I6
sS'silliest'
p6048
I1
sS'willingly'
p6049
I3
sS'1.D'
p6050
I1
sS'faithful'
p6051
I3
sS'no'
p6052
I446
sS"moment's"
p6053
I3
sS'when'
p6054
I294
sS'despising'
p6055
I2
sS'setting'
p6056
I2
sS'papers'
p6057
I1
sS'vanished'
p6058
I2
sS'unembarrassed'
p6059
I2
sS'picture'
p6060
I12
sS'preceding'
p6061
I4
sS'uniformly'
p6062
I3
sS'nods'
p6063
I1
sS'dullest'
p6064
I1
sS'discharge'
p6065
I2
sS'younger'
p6066
I28
sS'to-day'
p6067
I9
sS'longer'
p6068
I44
sS'vigorously'
p6069
I1
sS'longed'
p6070
I9
sS'remarked'
p6071
I1
sS'serious'
p6072
I24
sS'intimacy'
p6073
I10
sS'undoubted'
p6074
I1
sS'Contributions'
p6075
I1
sS'unprincipled'
p6076
I1
sS'premeditated'
p6077
I1
sS'coach'
p6078
I10
sS'remarkable'
p6079
I7
sS'Title'
p6080
I1
sS'rob'
p6081
I2
sS'particular'
p6082
I30
sS'leads'
p6083
I3
sS'remarkably'
p6084
I10
sS'Pride'
p6085
I5
sS'displaying'
p6086
I6
sS'discern'
p6087
I2
sS'injure'
p6088
I2
sS'essentials'
p6089
I2
sS'wilful'
p6090
I3
sS'passage'
p6091
I2
sS'abhorrent'
p6092
I1
sS'charge'
p6093
I14
sS'confinement'
p6094
I1
sS'avowal'
p6095
I3
sS'discovering'
p6096
I1
sS'honoured'
p6097
I9
sS'Day'
p6098
I1
sS'tidings'
p6099
I3
sS'advantage'
p6100
I34
sS'denied'
p6101
I3
sS'cook'
p6102
I1
sS'cool'
p6103
I3
sS'sighed'
p6104
I1
sS'impressive'
p6105
I1
sS'brother'
p6106
I72
sS'quick'
p6107
I10
sS'says'
p6108
I15
sS'injunction'
p6109
I1
sS'obsolete'
p6110
I1
sS'Jane'
p6111
I293
sS'Wilfully'
p6112
I1
sS'port'
p6113
I1
sS'substitute'
p6114
I1
sS'irritated'
p6115
I1
sS'constitution'
p6116
I1
sS'Theatre'
p6117
I1
sS'contracted'
p6118
I3
sS'servility'
p6119
I1
sS'paragraph'
p6120
I10
sS'goes'
p6121
I2
sS'reply'
p6122
I26
sS'amounting'
p6123
I1
sS'water'
p6124
I3
sS'requited'
p6125
I1
sS'entertain'
p6126
I5
sS'['
p6127
I1
sS'supplying'
p6128
I1
sS'supercilious'
p6129
I1
sS'thirty'
p6130
I4
sS'healthy'
p6131
I1
sS'guilty'
p6132
I2
sS'Hatfield'
p6133
I1
sS'descended'
p6134
I3
sS'moralize'
p6135
I1
sS'hospitality'
p6136
I3
sS'humour'
p6137
I21
sS'connivance'
p6138
I1
sS'bribery'
p6139
I1
sS'swallowed'
p6140
I1
sS'post'
p6141
I5
sS'Pemberley'
p6142
I53
sS'sports'
p6143
I1
sS'prey'
p6144
I2
sS'memory'
p6145
I8
sS'dismay'
p6146
I1
sS'October'
p6147
I1
sS'teased'
p6148
I2
sS'These'
p6149
I10
sS'neglected'
p6150
I2
sS'Calling'
p6151
I1
sS'employee'
p6152
I1
sS'cases'
p6153
I6
sS'states'
p6154
I4
sS'Family'
p6155
I1
sS'PLEASE'
p6156
I1
sS'modified'
p6157
I1
sS'laughter'
p6158
I2
sS'slightest'
p6159
I3
sS'deservedly'
p6160
I1
sS'performer'
p6161
I1
sS'nursing'
p6162
I1
sS'figure'
p6163
I8
sS'sense'
p6164
I36
sS'stroke'
p6165
I2
sS'dropped'
p6166
I3
sS'provoke'
p6167
I5
sS'intelligible'
p6168
I4
sS'Terms'
p6169
I2
sS'secured'
p6170
I4
sS'eloquent'
p6171
I2
sS'mismanagement'
p6172
I1
sS'1'
p6173
I3
sS'fourth'
p6174
I2
sS'speaks'
p6175
I3
sS'begs'
p6176
I1
sS'!'
p6177
I500
sS'professing'
p6178
I1
sS'impartial'
p6179
I3
sS'rites'
p6180
I1
sS"Collins's"
p6181
I1
sS'informs'
p6182
I1
sS'representations'
p6183
I1
sS'succeeded'
p6184
I7
sS'amuse'
p6185
I5
sS'propriety'
p6186
I8
sS'sedateness'
p6187
I1
sS'glancing'
p6188
I4
sS'representation'
p6189
I4
sS'lamented'
p6190
I1
sS'_meant_'
p6191
I1
sS'sonnet'
p6192
I1
sS'furnished'
p6193
I1
sS'undervalued'
p6194
I1
sS'depending'
p6195
I2
sS'dreading'
p6196
I1
sS'offers'
p6197
I6
sS'endless'
p6198
I2
sS'happened'
p6199
I24
sS'condescendingly'
p6200
I1
sS'conversations'
p6201
I1
sS'bound'
p6202
I3
sS'qualified'
p6203
I3
sS'conquer'
p6204
I2
sS'term'
p6205
I1
sS'name'
p6206
I33
sS'possibilities'
p6207
I1
sS'subjection'
p6208
I1
sS'trunks'
p6209
I1
sS'catching'
p6210
I1
sS'farewell'
p6211
I3
sS'begun'
p6212
I2
sS'Daughters'
p6213
I1
sS'intended'
p6214
I21
sS'exclamation'
p6215
I2
sS'ultimately'
p6216
I1
sS'intercourse'
p6217
I6
sS'profit'
p6218
I2
sS'liveliness'
p6219
I4
sS'attracted'
p6220
I2
sS'_manner_'
p6221
I1
sS'attended'
p6222
I24
sS'END'
p6223
I1
sS'state'
p6224
I25
sS'dispatched'
p6225
I4
sS'ill-breeding'
p6226
I1
sS'impose'
p6227
I2
sS'motion'
p6228
I1
sS'turn'
p6229
I27
sS'place'
p6230
I74
sS'retreating'
p6231
I1
sS'envied'
p6232
I2
sS'view'
p6233
I17
sS'childhood'
p6234
I1
sS'Speak'
p6235
I1
sS'suspend'
p6236
I1
sS'fetched'
p6237
I1
sS'self-denial'
p6238
I3
sS'array'
p6239
I1
sS'fight'
p6240
I2
sS'cheerfully'
p6241
I2
sS'disinterested'
p6242
I3
sS'given'
p6243
I56
sS'necessarily'
p6244
I4
sS'unstudied'
p6245
I1
sS'persuasions'
p6246
I1
sS'returns'
p6247
I3
sS'bounty'
p6248
I1
sS'Date'
p6249
I2
sS'Such'
p6250
I16
sS'white'
p6251
I3
sS'Dove'
p6252
I1
sS'gives'
p6253
I9
sS'hug'
p6254
I1
sS'tempers'
p6255
I1
sS'reverie'
p6256
I1
sS'season'
p6257
I3
sS'circulated'
p6258
I1
sS'inexpressible'
p6259
I1
sS'inexpressibly'
p6260
I1
sS'alas'
p6261
I2
sS'copy'
p6262
I12
sS'holder'
p6263
I4
sS'wide'
p6264
I4
sS'unfortunately'
p6265
I2
sS'require'
p6266
I4
sS'seminaries'
p6267
I1
sS'accused'
p6268
I2
sS'cards'
p6269
I7
sS'and'
p6270
I3493
sS'generality'
p6271
I2
sS'confessed'
p6272
I4
sS'suspense'
p6273
I6
sS'commissioning'
p6274
I1
sS'any'
p6275
I300
sS'prosperity'
p6276
I3
sS'narrow-minded'
p6277
I1
sS'transcription'
p6278
I1
sS'ideas'
p6279
I13
sS'wandered'
p6280
I2
sS'dining'
p6281
I5
sS'emphasis'
p6282
I1
sS'animation'
p6283
I4
sS'unavailing'
p6284
I2
sS'_here_'
p6285
I2
sS'gaining'
p6286
I3
sS'sure'
p6287
I101
sS'clearer'
p6288
I1
sS'falls'
p6289
I2
sS'visitors'
p6290
I14
sS'donation'
p6291
I1
sS'cleared'
p6292
I2
sS'heinous'
p6293
I1
sS'annum'
p6294
I2
sS'considered'
p6295
I23
sS'adopt'
p6296
I3
sS'Bingleys'
p6297
I5
sS'uncle'
p6298
I66
sS'quantity'
p6299
I1
sS'cheat'
p6300
I1
sS'cheap'
p6301
I1
sS'_sentiment_'
p6302
I1
sS'trespass'
p6303
I2
sS'hack'
p6304
I1
sS'self-attracted'
p6305
I1
sS'Posting'
p6306
I1
sS'gulf'
p6307
I1
sS'obstinacy'
p6308
I2
sS'wood'
p6309
I4
sS'believing'
p6310
I12
sS'partake'
p6311
I2
sS'dreaded'
p6312
I7
sS'hypertext'
p6313
I1
sS'lighted'
p6314
I1
sS'uncles'
p6315
I3
sS'begging'
p6316
I2
sS'expectation'
p6317
I18
sS'savours'
p6318
I1
sS'hedge'
p6319
I1
sS'closure'
p6320
I1
sS'regarding'
p6321
I1
sS'jokes'
p6322
I1
sS'fainter'
p6323
I2
sS'beholding'
p6324
I3
sS'imposing'
p6325
I1
sS'Colonel'
p6326
I63
sS'somebody'
p6327
I7
sS'replies'
p6328
I1
sS'connections'
p6329
I18
sS'obliging'
p6330
I5
sS'apologies'
p6331
I2
sS'asperity'
p6332
I1
sS'violates'
p6333
I1
sS'professed'
p6334
I4
sS'encouraged'
p6335
I8
sS'detect'
p6336
I1
sS'voluntary'
p6337
I3
sS'ways'
p6338
I4
sS'subsequent'
p6339
I1
sS'review'
p6340
I3
sS'circulating'
p6341
I1
sS'cheerfulness'
p6342
I7
sS'outside'
p6343
I3
sS'arrival'
p6344
I30
sS'originated'
p6345
I2
sS'fearless'
p6346
I1
sS'U.S.'
p6347
I3
sS'good-looking'
p6348
I1
sS'intrepidity'
p6349
I1
sS'_their_'
p6350
I1
sS'pens'
p6351
I1
sS'harshly'
p6352
I1
sS'come'
p6353
I86
sS'grieved'
p6354
I12
sS'quiet'
p6355
I8
sS'Occupied'
p6356
I1
sS'duty'
p6357
I15
sS'afterwards'
p6358
I32
sS'period'
p6359
I15
sS'insist'
p6360
I6
sS'resentment'
p6361
I17
sS'satisfaction'
p6362
I27
sS'61'
p6363
I1
sS'assertions'
p6364
I3
sS'forbearing'
p6365
I1
sS'But'
p6366
I318
sS'bequeathed'
p6367
I1
sS'hardly'
p6368
I46
sS'501'
p6369
I2
sS'direction'
p6370
I10
sS'exasperate'
p6371
I2
sS'blessing'
p6372
I4
sS'ostentation'
p6373
I1
sS'CONSEQUENTIAL'
p6374
I1
sS'attentive'
p6375
I10
sS'spirit'
p6376
I9
sS'case'
p6377
I32
sS'myself'
p6378
I93
sS'nothingness'
p6379
I1
sS'cast'
p6380
I2
sS'shops'
p6381
I1
sS'Additional'
p6382
I1
sS'contrive'
p6383
I3
sS'couples'
p6384
I1
sS'someone'
p6385
I1
sS'unreserved'
p6386
I3
sS'resentful'
p6387
I2
sS'quarreling'
p6388
I2
sS'reminded'
p6389
I6
sS'BENNET'
p6390
I1
sS'injurious'
p6391
I2
sS'Excuse'
p6392
I2
sS'dining-room'
p6393
I8
sS'bows'
p6394
I2
sS'agitated'
p6395
I5
sS'confidential'
p6396
I1
sS'events'
p6397
I5
sS'week'
p6398
I29
sS'disadvantages'
p6399
I2
sS'refusal'
p6400
I7
sS'driven'
p6401
I5
sS'persons'
p6402
I9
sS'petticoat'
p6403
I3
sS'delicate'
p6404
I6
sS'unqualified'
p6405
I1
sS'IN'
p6406
I1
sS'ragout'
p6407
I1
sS'changing'
p6408
I3
sS'weep'
p6409
I1
sS'IF'
p6410
I1
sS'longing'
p6411
I2
sS'weakened'
p6412
I1
sS'Is'
p6413
I24
sS'It'
p6414
I249
sS'without'
p6415
I174
sS'relief'
p6416
I13
sS'In'
p6417
I86
sS'termination'
p6418
I2
sS'model'
p6419
I2
sS'person_'
p6420
I1
sS'bodies'
p6421
I1
sS'justify'
p6422
I6
sS'United'
p6423
I10
sS'guided'
p6424
I2
sS'actions'
p6425
I6
sS'violent'
p6426
I9
sS'cease'
p6427
I3
sS'satin'
p6428
I2
sS'style.'
p6429
I1
sS'blow'
p6430
I1
sS'gentleness'
p6431
I4
sS'widest'
p6432
I2
sS'hint'
p6433
I12
sS'rose'
p6434
I7
sS"everyone's"
p6435
I1
sS'seems'
p6436
I22
sS'except'
p6437
I21
sS'falsely'
p6438
I1
sS'nectarines'
p6439
I1
sS'Change'
p6440
I1
sS'kingdom'
p6441
I4
sS'Many'
p6442
I5
sS'Kympton'
p6443
I1
sS'confined'
p6444
I5
sS'accepted'
p6445
I18
sS'furniture'
p6446
I10
sS'acute'
p6447
I2
sS'conversible'
p6448
I1
sS'oddly'
p6449
I1
sS'Produced'
p6450
I2
sS'donations'
p6451
I12
sS'Something'
p6452
I2
sS'reduced'
p6453
I4
sS'joking'
p6454
I1
sS'shillings'
p6455
I1
sS'veracity'
p6456
I2
sS'Since'
p6457
I5
sS'competition'
p6458
I3
sS'Astonishment'
p6459
I1
sS'table'
p6460
I28
sS'International'
p6461
I1
sS'oftener'
p6462
I3
sS'provided'
p6463
I10
sS'obtaining'
p6464
I2
sS'legal'
p6465
I3
sS'imputed'
p6466
I4
sS'quitting'
p6467
I8
sS'communicate'
p6468
I3
sS'Militia'
p6469
I2
sS'found'
p6470
I69
sS'affording'
p6471
I2
sS'on'
p6472
I691
sS'oh'
p6473
I3
sS'of'
p6474
I3706
sS'discussed'
p6475
I3
sS'informing'
p6476
I2
sS'mutually'
p6477
I1
sS'whence'
p6478
I2
sS'stand'
p6479
I10
sS'or'
p6480
I369
sS'ladies'
p6481
I74
sS'cambric'
p6482
I1
sS'communication'
p6483
I11
sS'rising'
p6484
I7
sS'determine'
p6485
I14
sS'lastly'
p6486
I1
sS'Sermons'
p6487
I1
sS'refinements'
p6488
I1
sS'strictly'
p6489
I1
sS'there'
p6490
I284
sS'disposed'
p6491
I15
sS'valley'
p6492
I4
sS'energy'
p6493
I4
sS'forbade'
p6494
I1
sS'mischief'
p6495
I3
sS'Remember'
p6496
I2
sS'regard'
p6497
I48
sS'amongst'
p6498
I11
sS'promote'
p6499
I4
sS'applying'
p6500
I3
sS'_now_'
p6501
I5
sS'eBook'
p6502
I6
sS'preside'
p6503
I1
sS'decamping'
p6504
I1
sS'grasp'
p6505
I1
sS'Special'
p6506
I1
sS'_advantages_'
p6507
I1
sS'Louisa'
p6508
I6
sS'taste'
p6509
I13
sS'frighten'
p6510
I1
sS'governed'
p6511
I2
sS'overflowing'
p6512
I1
sS'deserve'
p6513
I9
sS'Console'
p6514
I1
sS'allusions'
p6515
I2
sS"'Having"
p6516
I1
sS'5'
p6517
I2
sS'heavy-looking'
p6518
I1
sS'requested'
p6519
I2
sS'briefly'
p6520
I4
sS'winking'
p6521
I2
sS'_being'
p6522
I1
sS'separate'
p6523
I6
sS'contradicted'
p6524
I1
sS'includes'
p6525
I1
sS'START'
p6526
I2
sS'lovers'
p6527
I4
sS'requester'
p6528
I1
sS'included'
p6529
I5
sS'unanswerable'
p6530
I1
sS'backward'
p6531
I1
sS'calls'
p6532
I1
sS'wife'
p6533
I46
sS'uglier'
p6534
I1
sS'_very_'
p6535
I2
sS'lamentations'
p6536
I3
sS'apparel'
p6537
I1
sS'tanned'
p6538
I1
sS'all'
p6539
I623
sS'lace'
p6540
I1
sS'unmoved'
p6541
I1
sS'dish'
p6542
I5
sS'follow'
p6543
I12
sS'meditation'
p6544
I1
sS'settlement'
p6545
I2
sS'decisions'
p6546
I1
sS'glimpse'
p6547
I2
sS'apartment'
p6548
I4
sS'regulars'
p6549
I2
sS'subsided'
p6550
I1
sS'opportunities'
p6551
I2
sS'removal'
p6552
I7
sS'piqued'
p6553
I1
sS'presentation'
p6554
I5
sS'belonging'
p6555
I1
sS'woman'
p6556
I59
sS'worse'
p6557
I13
sS'equivocal'
p6558
I1
sS'song'
p6559
I5
sS'far'
p6560
I56
sS'induce'
p6561
I3
sS'sons'
p6562
I1
sS'worst'
p6563
I7
sS'***'
p6564
I6
sS'awful'
p6565
I2
sS'treating'
p6566
I1
sS'Vain'
p6567
I2
sS'list'
p6568
I3
sS'grandfather'
p6569
I1
sS'Eastbourne'
p6570
I1
sS'undone'
p6571
I1
sS'familiarly'
p6572
I2
sS'employing'
p6573
I1
sS'ten'
p6574
I30
sS'tea'
p6575
I11
sS'rate'
p6576
I5
sS'invention'
p6577
I1
sS'design'
p6578
I21
sS'what'
p6579
I401
sS"_anybody's_"
p6580
I1
sS'hesitation'
p6581
I3
sS'advantageous'
p6582
I2
sS'deeply'
p6583
I4
sS'sum'
p6584
I5
sS'eminent'
p6585
I1
sS'CONTRACT'
p6586
I1
sS'version'
p6587
I1
sS'multitude'
p6588
I1
sS'eligibility'
p6589
I1
sS'behaviour'
p6590
I55
sS'compressed'
p6591
I1
sS'directions'
p6592
I7
sS'observing'
p6593
I11
sS'graciousness'
p6594
I1
sS'extraordinary'
p6595
I16
sS'//www.pglaf.org'
p6596
I1
sS'stiffness'
p6597
I2
sS'thankfully'
p6598
I1
sS'suddenly'
p6599
I16
sS'Things'
p6600
I1
sS'solitude'
p6601
I3
sS'screens'
p6602
I1
sS'impolitic'
p6603
I1
sS'snug'
p6604
I1
sS'proceed'
p6605
I5
sS'faint'
p6606
I1
sS'_heard_'
p6607
I2
sS'promoting'
p6608
I2
sS'horses'
p6609
I8
sS'flat'
p6610
I1
sS'darting'
p6611
I1
sS'knows'
p6612
I9
sS"uncle's"
p6613
I2
sS'last-born'
p6614
I1
sS'draughts'
p6615
I2
sS'known'
p6616
I57
sS'exigence'
p6617
I1
sS'glad'
p6618
I37
sS'presumed'
p6619
I1
sS'unblemished'
p6620
I1
sS'illustrious'
p6621
I1
sS'forbearance'
p6622
I6
sS'ineffectual'
p6623
I1
sS'computers'
p6624
I2
sS'joints'
p6625
I1
sS'duets'
p6626
I1
sS'FULL'
p6627
I2
sS'imitation'
p6628
I1
sS'arise'
p6629
I8
sS'influenced'
p6630
I1
sS'court'
p6631
I4
sS'Anything'
p6632
I1
sS'half-year'
p6633
I1
sS'desperation'
p6634
I1
sS'rather'
p6635
I55
sS'respectable-looking'
p6636
I1
sS'breaking'
p6637
I2
sS'occasionally'
p6638
I12
sS'extinguished'
p6639
I1
sS'headstrong'
p6640
I4
sS'handsomer'
p6641
I3
sS'acknowledging'
p6642
I1
sS'weaknesses'
p6643
I1
sS'reflect'
p6644
I5
sS'adventure'
p6645
I2
sS'replete'
p6646
I1
sS'short'
p6647
I43
sS'chiefly'
p6648
I10
sS'departure'
p6649
I6
sS'artful'
p6650
I1
sS'shade'
p6651
I2
sS'retaliate'
p6652
I1
sS"don't"
p6653
I1
sS'essence'
p6654
I1
sS'mission'
p6655
I3
sS'unite'
p6656
I2
sS'avenue'
p6657
I1
sS'eluded'
p6658
I1
sS'inquiries'
p6659
I23
sS'style'
p6660
I9
sS'Full'
p6661
I1
sS'March'
p6662
I2
sS'forwards'
p6663
I1
sS'pray'
p6664
I13
sS'harmless'
p6665
I1
sS'parts'
p6666
I5
sS'self-willed'
p6667
I1
sS'might'
p6668
I200
sS'alter'
p6669
I1
sS'return'
p6670
I52
sS'generously'
p6671
I1
sS'insensibility'
p6672
I5
sS'instructions'
p6673
I3
sS'nephews'
p6674
I2
sS'repulsed'
p6675
I1
sS'stiles'
p6676
I1
sS'prettyish'
p6677
I1
sS'residing'
p6678
I1
sS'intolerable'
p6679
I3
sS'pleasanter'
p6680
I2
sS'weight'
p6681
I6
sS'needless'
p6682
I3
sS'generation'
p6683
I1
sS'colder'
p6684
I1
sS'oppressed'
p6685
I2
sS'duchess'
p6686
I1
sS'Meryton'
p6687
I57
sS'expect'
p6688
I35
sS'inflict'
p6689
I2
sS'resentfully'
p6690
I2
sS'More'
p6691
I2
sS'wondered'
p6692
I8
sS'disquiet'
p6693
I1
sS'Lakes'
p6694
I6
sS'candour'
p6695
I3
sS'health'
p6696
I18
sS'hill'
p6697
I2
sS'congenial'
p6698
I1
sS'induced'
p6699
I2
sS'prodigiously'
p6700
I3
sS'thorough-bass'
p6701
I1
sS'forgive'
p6702
I8
sS'teach'
p6703
I5
sS'Lucases'
p6704
I14
sS'thrown'
p6705
I8
sS"Caroline's"
p6706
I2
sS'People'
p6707
I3
sS'alluded'
p6708
I6
sS'introduction'
p6709
I11
sS'prejudice'
p6710
I5
sS'circuit'
p6711
I1
sS'consequence'
p6712
I30
sS'fallen'
p6713
I3
sS'dine'
p6714
I16
sS'shrewish'
p6715
I1
sS'fourthly'
p6716
I1
sS'feel'
p6717
I38
sS'relate'
p6718
I11
sS'fancy'
p6719
I19
sS'entreated'
p6720
I2
sS'feet'
p6721
I1
sS'defects'
p6722
I5
sS'fees'
p6723
I4
sS'story'
p6724
I9
sS'breathless'
p6725
I2
sS'redistributing'
p6726
I1
sS'leading'
p6727
I5
sS'lobby'
p6728
I1
sS'passed'
p6729
I61
sS'finances'
p6730
I1
sS'recovered'
p6731
I6
sS'headache'
p6732
I2
sS'attendants'
p6733
I1
sS'treasured'
p6734
I1
sS'statement'
p6735
I2
sS'relieved'
p6736
I8
sS'uncommonly'
p6737
I9
sS'hotel'
p6738
I1
sS'luckily'
p6739
I4
sS'fidget'
p6740
I1
sS'vindication'
p6741
I2
sS'convinced'
p6742
I39
sS'Britain'
p6743
I1
sS'king'
p6744
I1
sS'kind'
p6745
I61
sS'double'
p6746
I2
sS'instruction'
p6747
I2
sS'_which_'
p6748
I1
sS'doubly'
p6749
I1
sS'insulted'
p6750
I1
sS'tongues'
p6751
I1
sS'exert'
p6752
I2
sS'suspicious'
p6753
I1
sS'disgusting'
p6754
I1
sS'alike'
p6755
I2
sS'glen'
p6756
I1
sS'imitations'
p6757
I1
sS'finding'
p6758
I13
sS'added'
p6759
I71
sS'reckon'
p6760
I1
sS'//www.gutenberg.org/1/3/4/1342/'
p6761
I1
sS'inconvenience'
p6762
I6
sS'reach'
p6763
I8
sS'miserly'
p6764
I1
sS'enduring'
p6765
I1
sS'undertaken'
p6766
I1
sS'nothing'
p6767
I163
sS'stately'
p6768
I3
sS'windows'
p6769
I6
sS'dissolved'
p6770
I1
sS'saloon'
p6771
I2
sS'coincided'
p6772
I1
sS'Reynolds'
p6773
I10
sS'lying'
p6774
I1
sS'Thoughtless'
p6775
I1
sS'journeys'
p6776
I1
sS'fond'
p6777
I16
sS'inflexibly'
p6778
I1
sS'costing'
p6779
I1
sS'palliation'
p6780
I1
sS'deserts'
p6781
I2
sS'Intimate'
p6782
I1
sS'excessively'
p6783
I11
sS'abiding'
p6784
I1
sS'betray'
p6785
I3
sS'windings'
p6786
I1
sS'_much_'
p6787
I1
sS'his'
p6788
I1178
sS'meditations'
p6789
I1
sS'obtain'
p6790
I6
sS'avarice'
p6791
I1
sS'5,000'
p6792
I1
sS'shared'
p6793
I5
sS'deaden'
p6794
I1
sS'him'
p6795
I753
sS'grievances'
p6796
I2
sS'keenest'
p6797
I3
sS'THIS'
p6798
I5
sS'_Her_'
p6799
I2
sS'activity'
p6800
I4
sS'distant'
p6801
I5
sS'wrote'
p6802
I21
sS'fishing'
p6803
I4
sS'prettier-coloured'
p6804
I1
sS'loveliness'
p6805
I2
sS'art'
p6806
I3
sS'mischievously'
p6807
I1
sS'invectives'
p6808
I1
sS'intelligence'
p6809
I19
sS'Howsoever'
p6810
I1
sS'defense'
p6811
I1
sS'bare'
p6812
I1
sS'are'
p6813
I342
sS'arm'
p6814
I2
sS'declined'
p6815
I6
sS'learnt'
p6816
I14
sS'forlorn'
p6817
I1
sS'drooping'
p6818
I1
sS'various'
p6819
I10
sS'deserted'
p6820
I1
sS'numerous'
p6821
I3
sS'corruption'
p6822
I1
sS'lamenting'
p6823
I1
sS'creating'
p6824
I3
sS'Could'
p6825
I11
sS'sole'
p6826
I4
sS'succeed'
p6827
I3
sS'DONATIONS'
p6828
I1
sS'opposition'
p6829
I3
sS'betrayed'
p6830
I4
sS'AND'
p6831
I4
sS'c'
p6832
I3
sS'license'
p6833
I3
sS'became'
p6834
I16
sS'overset'
p6835
I1
sS'finds'
p6836
I1
sS'Happiness'
p6837
I1
sS'nettled'
p6838
I1
sS'distress'
p6839
I16
sS'duplicity'
p6840
I2
sS'reasons'
p6841
I5
sS'sweet'
p6842
I6
sS'improper'
p6843
I2
sS'regulated'
p6844
I1
sS'_should_'
p6845
I3
sS'village'
p6846
I6
sS'decline'
p6847
I2
sS'there.'
p6848
I1
sS'overlook'
p6849
I3
sS'due'
p6850
I11
sS'whom'
p6851
I85
sS'Gretna'
p6852
I2
sS'affectionate'
p6853
I17
sS'flight'
p6854
I3
sS'latterly'
p6855
I1
sS'imprudence'
p6856
I8
sS'precision'
p6857
I1
sS'demand'
p6858
I4
sS'livery'
p6859
I2
sS'heighten'
p6860
I1
sS'conception'
p6861
I1
sS'boast'
p6862
I11
sS'civility'
p6863
I42
sS'By'
p6864
I15
sS'expressly'
p6865
I1
sS'64-6221541'
p6866
I1
sS'impassable'
p6867
I1
sS'City'
p6868
I1
sS'lodges'
p6869
I2
sS'canvassed'
p6870
I2
sS'disappointing'
p6871
I3
sS'ecstasy'
p6872
I2
sS'ungraciousness'
p6873
I1
sS'rid'
p6874
I5
sS'anguish'
p6875
I2
sS'chestnuts'
p6876
I1
sS'fate'
p6877
I2
sS'parading'
p6878
I1
sS'shire'
p6879
I12
sS'widely'
p6880
I3
sS'9'
p6881
I1
sS'advise'
p6882
I8
sS'daughters'
p6883
I49
sS'higher'
p6884
I4
sS'About'
p6885
I7
sS'restraint'
p6886
I5
sS'usually'
p6887
I8
sS'moving'
p6888
I5
sS'YOU'
p6889
I6
sS'concise'
p6890
I1
sS'objecting'
p6891
I3
sS'petitioned'
p6892
I1
sS'Carter'
p6893
I4
sS'solemnity'
p6894
I5
sS'Almost'
p6895
I1
sS'try'
p6896
I12
sS'dancing'
p6897
I21
sS'anybody'
p6898
I24
sS'dared'
p6899
I13
sS'edge'
p6900
I2
sS'stating'
p6901
I3
sS'abilities'
p6902
I6
sS'endeavour'
p6903
I20
sS'_what_'
p6904
I1
sS'intervals'
p6905
I3
sS'questions'
p6906
I16
sS'regardless'
p6907
I2
sS'meanest'
p6908
I1
sS'tables'
p6909
I3
sS'corroborated'
p6910
I1
sS'speedily'
p6911
I6
sS'exhibition'
p6912
I2
sS'confederacy'
p6913
I1
sS'Goulding'
p6914
I1
sS'complaint'
p6915
I1
sS'Last'
p6916
I2
sS'self-sufficiency'
p6917
I1
sS'Anxious'
p6918
I1
sS'necessary'
p6919
I31
sS'sharpened'
p6920
I2
sS'separately'
p6921
I1
sS'uproar'
p6922
I1
sS'distrust'
p6923
I2
sS'Merely'
p6924
I1
sS'Within'
p6925
I2
sS'hinted'
p6926
I1
sS'disinclined'
p6927
I1
sS'understood'
p6928
I13
sS'selfishness'
p6929
I1
sS'newsletter'
p6930
I1
sS'Email'
p6931
I1
sS'_laugh_'
p6932
I1
sS'gradually'
p6933
I6
sS'rectitude'
p6934
I1
sS'porridge'
p6935
I1
sS'jumps'
p6936
I1
sS'refused'
p6937
I6
sS'Prejudice'
p6938
I3
sS'consolation'
p6939
I10
sS'Parsonage'
p6940
I15
sS'asserting'
p6941
I1
sS'housekeeping'
p6942
I3
sS'strongly-marked'
p6943
I1
sS'range'
p6944
I2
sS'militia'
p6945
I4
sS'hatred'
p6946
I1
sS'conquest'
p6947
I2
sS'heedless'
p6948
I1
sS'persevering'
p6949
I1
sS'Everything'
p6950
I3
sS'impressed'
p6951
I1
sS'whims'
p6952
I2
sS'acquiesce'
p6953
I1
sS'question'
p6954
I23
sS'amidst'
p6955
I4
sS'Every'
p6956
I15
sS'prettier'
p6957
I1
sS'oddities'
p6958
I1
sS'files'
p6959
I2
sS'mountains'
p6960
I2
sS'solidity'
p6961
I2
sS'repeatedly'
p6962
I9
sS'forbidding'
p6963
I1
sS'junior'
p6964
I1
sS'raising'
p6965
I3
sS'motive'
p6966
I17
sS'Hear'
p6967
I1
sS'gallantry'
p6968
I8
sS'Bell'
p6969
I1
sS'characteristic'
p6970
I2
sS'gratifying'
p6971
I6
sS'_endeavour_'
p6972
I1
sS'etc.'
p6973
I3
sS'called'
p6974
I41
sS'associated'
p6975
I8
sS'allayed'
p6976
I1
sS'Arguments'
p6977
I1
sS'evils'
p6978
I8
sS'employment'
p6979
I6
sS'malicious'
p6980
I2
sS'grouped'
p6981
I1
sS'income'
p6982
I11
sS'unjustifiable'
p6983
I2
sS'reflections'
p6984
I9
sS'dictating'
p6985
I1
sS'perusal'
p6986
I4
sS'_only_'
p6987
I1
sS'meaning'
p6988
I14
sS'allowing'
p6989
I6
sS'flirtation'
p6990
I2
sS'_begin_'
p6991
I1
sS'rightful'
p6992
I1
sS'suffers'
p6993
I1
sS'happier'
p6994
I3
sS'reproached'
p6995
I2
sS'vice'
p6996
I3
sS'unaffectedly'
p6997
I2
sS'amusements'
p6998
I3
sS'impatient'
p6999
I8
sS'reproaches'
p7000
I1
sS'narrative'
p7001
I1
sS'weighty'
p7002
I1
sS'once'
p7003
I56
sS'resistance'
p7004
I2
sS'infatuation'
p7005
I1
sS'contributions'
p7006
I1
sS'disposal'
p7007
I2
sS'languages'
p7008
I1
sS'obstinate'
p7009
I3
sS'breach'
p7010
I3
sS'include'
p7011
I2
sS'abode'
p7012
I8
sS'confirmation'
p7013
I5
sS'wished'
p7014
I37
sS'bedrooms'
p7015
I1
sS'wishes'
p7016
I34
sS'revenging'
p7017
I1
sS'indecorum'
p7018
I1
sS'redistribute'
p7019
I1
sS'disclaimed'
p7020
I1
sS'notes'
p7021
I1
sS'tenderness'
p7022
I3
sS'warranties'
p7023
I1
sS'disclaimer'
p7024
I2
sS'concluded'
p7025
I10
sS'abominably'
p7026
I4
sS'unwearying'
p7027
I1
sS'malice'
p7028
I2
sS'plead'
p7029
I2
sS'abominable'
p7030
I6
sS'Sections'
p7031
I1
sS'ladyship'
p7032
I42
sS'universities'
p7033
I1
sS'Consoled'
p7034
I1
sS'_can_'
p7035
I1
sS'discontinuance'
p7036
I1
sS'waiting'
p7037
I9
sS'concisely'
p7038
I2
sS'capital'
p7039
I4
sS'_us_'
p7040
I2
sS'gaily'
p7041
I2
sS'degree'
p7042
I23
sS'youngest'
p7043
I13
sS'desired'
p7044
I6
sS'explore'
p7045
I1
sS'separation'
p7046
I8
sS'settling'
p7047
I3
sS'survivor'
p7048
I1
sS'distressed'
p7049
I13
sS'larger'
p7050
I6
sS'shades'
p7051
I1
sS'leaving'
p7052
I18
sS'simpleton'
p7053
I4
sS'forbid'
p7054
I4
sS'confession'
p7055
I3
sS'ensign'
p7056
I1
sS'apt'
p7057
I1
sS'improbable'
p7058
I7
sS'apply'
p7059
I4
sS'use'
p7060
I23
sS'fee'
p7061
I8
sS'lottery'
p7062
I3
sS'stream'
p7063
I4
sS'few'
p7064
I72
sS'examination'
p7065
I3
sS'bitterly'
p7066
I2
sS'_one_'
p7067
I5
sS'unequally'
p7068
I1
sS'sort'
p7069
I38
sS'Lane'
p7070
I1
sS'clever'
p7071
I7
sS'detail'
p7072
I1
sS'inclined'
p7073
I10
sS'overhearings'
p7074
I1
sS'steadfastly'
p7075
I3
sS'faultless'
p7076
I1
sS'distractedly'
p7077
I1
sS'women'
p7078
I19
sS'topic'
p7079
I1
sS'augment'
p7080
I1
sS'fortunes'
p7081
I1
sS'anywhere'
p7082
I3
sS'UT'
p7083
I1
sS'performed'
p7084
I7
sS'confidante'
p7085
I2
sS'indulgence'
p7086
I6
sS'patron'
p7087
I3
sS'calculation'
p7088
I1
sS'tax'
p7089
I8
sS'dependence'
p7090
I7
sS'condescend'
p7091
I1
sS'something'
p7092
I69
sS'Imprudent'
p7093
I1
sS'sir'
p7094
I27
sS'counting'
p7095
I1
sS'sit'
p7096
I15
sS'nearness'
p7097
I1
sS'parlour'
p7098
I6
sS'struggles'
p7099
I3
sS'fortunate'
p7100
I15
sS'unquestionably'
p7101
I1
sS'instead'
p7102
I19
sS'struggled'
p7103
I2
sS'_does_'
p7104
I2
sS'maternal'
p7105
I2
sS'attend'
p7106
I5
sS'PROJECT'
p7107
I4
sS'abuse'
p7108
I2
sS'unnaturally'
p7109
I1
sS'requirements'
p7110
I4
sS'seconding'
p7111
I1
sS'readiness'
p7112
I4
sS'Letters'
p7113
I1
sS'light'
p7114
I18
sS'interrupted'
p7115
I9
sS'fortunately'
p7116
I2
sS'supplication'
p7117
I1
sS'honestly'
p7118
I4
sS'irregularity'
p7119
I1
sS'parsonage'
p7120
I2
sS'beauties'
p7121
I4
sS'sanctioned'
p7122
I2
sS'a-shooting'
p7123
I1
sS'coolly'
p7124
I4
sS'interpreted'
p7125
I1
sS'whilst'
p7126
I3
sS'dearest'
p7127
I14
sS'looks'
p7128
I12
sS'Warwick'
p7129
I1
sS'suiting'
p7130
I1
sS'obeisance'
p7131
I1
sS'superior'
p7132
I18
sS'wilderness'
p7133
I1
sS'eyes_'
p7134
I1
sS'permanent'
p7135
I2
sS'restrain'
p7136
I2
sS'choose'
p7137
I19
sS'inconsistencies'
p7138
I2
sS'covered'
p7139
I2
sS'bye'
p7140
I3
sS'originator'
p7141
I1
sS'practice'
p7142
I5
sS'commended'
p7143
I2
sS'flew'
p7144
I2
sS'impressing'
p7145
I1
sS'negligent'
p7146
I1
sS'Can'
p7147
I11
sS'ambition'
p7148
I1
sS'affections'
p7149
I4
sS'successor'
p7150
I1
sS'articles'
p7151
I2
sS'footstool'
p7152
I1
sS'pleasures'
p7153
I7
sS'bills'
p7154
I1
sS'ill-consequences'
p7155
I1
sS'cry'
p7156
I1
sS'John'
p7157
I2
sS'unshaken'
p7158
I1
sS'related'
p7159
I16
sS'Next'
p7160
I2
sS'doubled'
p7161
I1
sS'Which'
p7162
I1
sS'disinterestedness'
p7163
I1
sS'indulged'
p7164
I2
sS'out'
p7165
I134
sS'respects'
p7166
I6
sS'staircase'
p7167
I2
sS'sentiment'
p7168
I7
sS'Nearly'
p7169
I2
sS'performs'
p7170
I1
sS'exporting'
p7171
I1
sS'attentively'
p7172
I3
sS'ponies'
p7173
I3
sS'disclose'
p7174
I1
sS'This'
p7175
I71
sS'Stupid'
p7176
I1
sS'anyhow'
p7177
I1
sS'tenant'
p7178
I1
sS'additional'
p7179
I5
sS'conversation'
p7180
I61
sS'produce'
p7181
I6
sS'hence'
p7182
I1
sS'biting'
p7183
I1
sS'_scheme_'
p7184
I1
sS'plainly'
p7185
I6
sS'hitherto'
p7186
I2
sS'bonnet'
p7187
I3
sS'Accordingly'
p7188
I1
sS'enormity'
p7189
I1
sS'filial'
p7190
I1
sS'laughingly'
p7191
I2
sS'North'
p7192
I5
sS'uniting'
p7193
I1
sS'unknown'
p7194
I8
sS'accent'
p7195
I4
sS'inmate'
p7196
I1
sS'their'
p7197
I409
sS'1500'
p7198
I1
sS'misunderstood'
p7199
I4
sS'While'
p7200
I14
sS'consoling'
p7201
I3
sS'reflecting'
p7202
I1
sS'dispelling'
p7203
I1
sS'elope'
p7204
I1
sS'objectionable'
p7205
I3
sS'see'
p7206
I150
sS'creditors'
p7207
I2
sS'unaccountable'
p7208
I2
sS'sincerity'
p7209
I4
sS'outstrip'
p7210
I1
sS'atoned'
p7211
I1
sS'Bourgh'
p7212
I39
sS'inform'
p7213
I7
sS'After'
p7214
I36
sS'admittance'
p7215
I1
sS'which'
p7216
I544
sS'divert'
p7217
I1
sS'who'
p7218
I278
sS'Gregory'
p7219
I1
sS'alarmed'
p7220
I8
sS'why'
p7221
I31
sS"husband's"
p7222
I1
sS'discourage'
p7223
I2
sS'refreshing'
p7224
I2
sS'retrospections'
p7225
I1
sS'unacknowledged'
p7226
I1
sS'looked'
p7227
I74
sS'neatness'
p7228
I2
sS'1.F'
p7229
I1
sS'1.A'
p7230
I1
sS'1.B'
p7231
I1
sS'1.C'
p7232
I2
sS'ensued'
p7233
I2
sS'goals'
p7234
I1
sS'Everybody'
p7235
I4
sS'refund'
p7236
I8
sS'mistook'
p7237
I1
sS'chances'
p7238
I1
sS'pleases'
p7239
I2
sS'precipitance'
p7240
I2
sS'artfully'
p7241
I1
sS'planning'
p7242
I2
sS'fretfully'
p7243
I2
sS'utter'
p7244
I6
sS'chicken'
p7245
I1
sS'pleased'
p7246
I38
sS'chanced'
p7247
I1
sS'nearer'
p7248
I5
sS'highest'
p7249
I9
sS'disgracing'
p7250
I2
sS'eat'
p7251
I5
sS'local'
p7252
I1
sS'indignant'
p7253
I2
sS'watching'
p7254
I8
sS'flirting'
p7255
I2
sS'ones'
p7256
I6
sS'words'
p7257
I29
sS'THE'
p7258
I4
sS'spur'
p7259
I1
sS'brain'
p7260
I2
sS'deceives'
p7261
I1
sS'married'
p7262
I61
sS'INCLUDING'
p7263
I1
sS'compliment'
p7264
I26
sS'ascertain'
p7265
I2
sS'generations'
p7266
I3
sS'deceived'
p7267
I13
sS'available'
p7268
I2
sS'humiliation'
p7269
I2
sS'acquired'
p7270
I2
sS'recede'
p7271
I1
sS'DIRECT'
p7272
I1
sS'merits'
p7273
I1
sS'closer'
p7274
I1
sS'closet'
p7275
I1
sS'carriage'
p7276
I44
sS'genius'
p7277
I2
sS'identification'
p7278
I1
sS'closed'
p7279
I6
sS"'Ah"
p7280
I1
sS'_must_'
p7281
I3
sS'bought'
p7282
I5
sS'combated'
p7283
I1
sS'jot'
p7284
I1
sS'opening'
p7285
I13
sS'joy'
p7286
I12
sS'embarrassment'
p7287
I10
sS'_do_'
p7288
I6
sS'one-and-twenty'
p7289
I1
sS'grain'
p7290
I1
sS'safely'
p7291
I3
sS'grounds'
p7292
I6
sS'walk'
p7293
I51
sS'subscribe'
p7294
I1
sS'worldly'
p7295
I2
sS'respect'
p7296
I29
sS'withdrawn'
p7297
I3
sS'unhappiness'
p7298
I2
sS'decent'
p7299
I3
sS'trademark'
p7300
I9
sS'enlarging'
p7301
I1
sS'proudest'
p7302
I1
sS'sufficient'
p7303
I4
sS'Hunsford'
p7304
I25
sS'scrutiny'
p7305
I1
sS'ensuring'
p7306
I1
sS'last'
p7307
I118
sS'repetition'
p7308
I3
sS'painter'
p7309
I1
sS'eyelashes'
p7310
I1
sS'unlike'
p7311
I4
sS'fearful'
p7312
I5
sS'Nonsense'
p7313
I2
sS'will'
p7314
I402
sS'persevered'
p7315
I1
sS'carelessness'
p7316
I2
sS'wild'
p7317
I11
sS'barely'
p7318
I1
sS'thus'
p7319
I26
sS'disapprove'
p7320
I1
sS'encouragement'
p7321
I10
sS'_right_'
p7322
I1
sS'Hope'
p7323
I1
sS'kissed'
p7324
I2
sS'perhaps'
p7325
I57
sS'cross'
p7326
I4
sS'enumeration'
p7327
I1
sS'member'
p7328
I1
sS'retailing'
p7329
I1
sS'exuberance'
p7330
I1
sS'largest'
p7331
I1
sS'gets'
p7332
I1
sS'privileged'
p7333
I3
sS'grandeur'
p7334
I4
sS'difficult'
p7335
I11
sS'slave'
p7336
I2
sS'Dawson'
p7337
I1
sS'scrupled'
p7338
I2
sS'correspondent'
p7339
I2
sS'whole'
p7340
I79
sS'brooking'
p7341
I1
sS'fighting'
p7342
I1
sS'tithes'
p7343
I1
sS'States'
p7344
I10
sS'scruples'
p7345
I4
sS"'Yes"
p7346
I1
sS'realised'
p7347
I1
sS'excessive'
p7348
I4
sS'cried'
p7349
I91
sS'fancying'
p7350
I4
sS'recollection'
p7351
I12
sS'condescended'
p7352
I5
sS'happiness'
p7353
I71
sS'disturbance'
p7354
I1
sS'console'
p7355
I8
sS'Far'
p7356
I2
sS'supply'
p7357
I7
sS'hall'
p7358
I11
sS'hastening'
p7359
I2
sS'book'
p7360
I16
sS'expedite'
p7361
I1
sS'earnestly'
p7362
I11
sS'captivating'
p7363
I2
sS'provisions'
p7364
I1
sS'susceptibility'
p7365
I1
sS'FITZWILLIAM'
p7366
I1
sS'know'
p7367
I237
sS'presume'
p7368
I2
sS'press'
p7369
I4
sS'inheriting'
p7370
I2
sS'LIMITED'
p7371
I3
sS'safest'
p7372
I1
sS'perpetual'
p7373
I1
sS'mother-in-law'
p7374
I2
sS'loser'
p7375
I1
sS'overtures'
p7376
I1
sS'repressed'
p7377
I2
sS'conclusion'
p7378
I8
sS'wonders'
p7379
I3
sS'1.F.2'
p7380
I1
sS'exceed'
p7381
I1
sS'because'
p7382
I61
sS'smoothly'
p7383
I1
sS'Section'
p7384
I7
sS'church'
p7385
I10
sS'searching'
p7386
I1
sS'growth'
p7387
I1
sS'_conditionally_'
p7388
I1
sS'openness'
p7389
I3
sS'1.F.6'
p7390
I1
sS'neglecting'
p7391
I2
sS'lead'
p7392
I6
sS'philosopher'
p7393
I1
sS'instantaneous'
p7394
I1
sS'trout'
p7395
I1
sS'curtseyed'
p7396
I1
sS'obey'
p7397
I1
sS'conveyed'
p7398
I2
sS'tempered'
p7399
I1
sS'Bingley'
p7400
I301
sS'threats'
p7401
I1
sS'carried'
p7402
I8
sS'getting'
p7403
I7
sS'complaisance'
p7404
I5
sS'urged'
p7405
I6
sS'fear'
p7406
I24
sS'outstripped'
p7407
I1
sS'Really'
p7408
I1
sS'individually'
p7409
I1
sS'own'
p7410
I182
sS'polished'
p7411
I2
sS'strangeness'
p7412
I1
sS'owe'
p7413
I5
sS'newly-born'
p7414
I1
sS'weather'
p7415
I6
sS'promise'
p7416
I16
sS'Widely'
p7417
I1
sS'*'
p7418
I30
sS'Upon'
p7419
I12
sS'faithfully'
p7420
I1
sS'preferment'
p7421
I3
sS'intention'
p7422
I15
sS'wickedest'
p7423
I1
sS'breeding'
p7424
I5
sS'extort'
p7425
I1
sS'ensigncy'
p7426
I1
sS'volume'
p7427
I2
sS'selfish'
p7428
I7
sS'made'
p7429
I126
sS"Charlotte's"
p7430
I3
sS'Ten'
p7431
I3
sS'whether'
p7432
I53
sS'protesting'
p7433
I4
sS'Engaged'
p7434
I1
sS'below'
p7435
I8
sS'cake'
p7436
I1
sS'stirring'
p7437
I1
sS'unfolding'
p7438
I1
sS'eagerness'
p7439
I8
sS'apothecary'
p7440
I2
sS'humbling'
p7441
I1
sS'inadequate'
p7442
I1
sS'horsewoman'
p7443
I1
sS'goodness'
p7444
I10
sS'naming'
p7445
I1
sS'mutual'
p7446
I5
sS'avoided'
p7447
I1
sS"'ll"
p7448
I1
sS'incredible'
p7449
I3
sS'other'
p7450
I222
sS'Five'
p7451
I3
sS'sick'
p7452
I6
sS'Brother-in-law'
p7453
I1
sS'disobliging'
p7454
I1
sS'importuned'
p7455
I1
sS'sloping'
p7456
I1
sS'withstood'
p7457
I1
sS'1.F.3'
p7458
I4
sS'1.F.1'
p7459
I1
sS'kinds'
p7460
I1
sS'1.F.4'
p7461
I1
sS'1.F.5'
p7462
I1
sS'shown'
p7463
I6
sS'earthly'
p7464
I1
sS'BEFORE'
p7465
I1
sS'incurred'
p7466
I1
sS'perfections'
p7467
I2
sS'alienated'
p7468
I1
sS'insipid'
p7469
I1
sS'jewel'
p7470
I1
sS'intentionally'
p7471
I2
sS'sleeves'
p7472
I1
sS'sash'
p7473
I1
s.